Archive member included to satisfy reference by file (symbol)

d:/Work/NDS/projects/NFlib/nflib/examples/3dsprites/animation/nflib/lib\libnflib.a(nf_2d.o)
                              main.o (NF_Set2D)
d:/Work/NDS/projects/NFlib/nflib/examples/3dsprites/animation/nflib/lib\libnflib.a(nf_3d.o)
                              main.o (NF_Set3D)
d:/Work/NDS/projects/NFlib/nflib/examples/3dsprites/animation/nflib/lib\libnflib.a(nf_basic.o)
                              d:/Work/NDS/projects/NFlib/nflib/examples/3dsprites/animation/nflib/lib\libnflib.a(nf_2d.o) (NF_Error)
d:/Work/NDS/projects/NFlib/nflib/examples/3dsprites/animation/nflib/lib\libnflib.a(nf_sprite256.o)
                              main.o (NF_InitSpriteBuffers)
d:/Work/NDS/projects/NFlib/nflib/examples/3dsprites/animation/nflib/lib\libnflib.a(nf_sprite3d.o)
                              main.o (NF_Init3dSpriteSys)
d:/Work/NDS/projects/NFlib/nflib/examples/3dsprites/animation/nflib/lib\libnflib.a(nf_tiledbg.o)
                              main.o (NF_InitTiledBgBuffers)
c:/code/devkitPro/libnds/lib\libfilesystem.a(nitrofs.o)
                              d:/Work/NDS/projects/NFlib/nflib/examples/3dsprites/animation/nflib/lib\libnflib.a(nf_basic.o) (nitroFSInit)
c:/code/devkitPro/libnds/lib\libfat.a(libfat.o)
                              d:/Work/NDS/projects/NFlib/nflib/examples/3dsprites/animation/nflib/lib\libnflib.a(nf_basic.o) (fatInitDefault)
c:/code/devkitPro/libnds/lib\libfat.a(partition.o)
                              c:/code/devkitPro/libnds/lib\libfat.a(libfat.o) (_FAT_partition_constructor)
c:/code/devkitPro/libnds/lib\libfat.a(lock.o)
                              c:/code/devkitPro/libnds/lib\libfat.a(partition.o) (_FAT_lock_init)
c:/code/devkitPro/libnds/lib\libfat.a(fatdir.o)
                              c:/code/devkitPro/libnds/lib\libfat.a(libfat.o) (_FAT_stat_r)
c:/code/devkitPro/libnds/lib\libfat.a(cache.o)
                              c:/code/devkitPro/libnds/lib\libfat.a(partition.o) (_FAT_cache_constructor)
c:/code/devkitPro/libnds/lib\libfat.a(fatfile.o)
                              c:/code/devkitPro/libnds/lib\libfat.a(libfat.o) (_FAT_open_r)
c:/code/devkitPro/libnds/lib\libfat.a(disc.o)
                              c:/code/devkitPro/libnds/lib\libfat.a(libfat.o) (_FAT_disc_interfaces)
c:/code/devkitPro/libnds/lib\libfat.a(file_allocation_table.o)
                              c:/code/devkitPro/libnds/lib\libfat.a(fatfile.o) (_FAT_fat_nextCluster)
c:/code/devkitPro/libnds/lib\libfat.a(filetime.o)
                              c:/code/devkitPro/libnds/lib\libfat.a(fatdir.o) (_FAT_filetime_getTimeFromRTC)
c:/code/devkitPro/libnds/lib\libfat.a(directory.o)
                              c:/code/devkitPro/libnds/lib\libfat.a(fatdir.o) (_FAT_directory_entryGetCluster)
c:/code/devkitPro/libnds/lib\libnds9.a(console.o)
                              main.o (consoleDemoInit)
c:/code/devkitPro/libnds/lib\libnds9.a(video.o)
                              d:/Work/NDS/projects/NFlib/nflib/examples/3dsprites/animation/nflib/lib\libnflib.a(nf_basic.o) (setBrightness)
c:/code/devkitPro/libnds/lib\libnds9.a(background.o)
                              c:/code/devkitPro/libnds/lib\libnds9.a(console.o) (bgState)
c:/code/devkitPro/libnds/lib\libnds9.a(trig.o)
                              d:/Work/NDS/projects/NFlib/nflib/examples/3dsprites/animation/nflib/lib\libnflib.a(nf_sprite3d.o) (sinLerp)
c:/code/devkitPro/libnds/lib\libnds9.a(videoGL.o)
                              d:/Work/NDS/projects/NFlib/nflib/examples/3dsprites/animation/nflib/lib\libnflib.a(nf_3d.o) (glGlobalData)
c:/code/devkitPro/libnds/lib\libnds9.a(sprite.o)
                              d:/Work/NDS/projects/NFlib/nflib/examples/3dsprites/animation/nflib/lib\libnflib.a(nf_sprite256.o) (oamInit)
c:/code/devkitPro/libnds/lib\libnds9.a(sd.twl.o)
                              c:/code/devkitPro/libnds/lib\libfat.a(disc.o) (__io_dsisd)
c:/code/devkitPro/libnds/lib\libnds9.a(dldi.o)
                              c:/code/devkitPro/libnds/lib\libfat.a(disc.o) (dldiGetInternal)
c:/code/devkitPro/libnds/lib\libnds9.a(initSystem.o)
                              c:/code/devkitpro/devkitarm/bin/../lib/gcc/arm-none-eabi/6.3.0/../../../../arm-none-eabi/lib/thumb/ds_arm9_crt0.o (initSystem)
c:/code/devkitPro/libnds/lib\libnds9.a(timeSupport.o)
                              c:/code/devkitPro/libnds/lib\libnds9.a(initSystem.o) (__libnds_gtod)
c:/code/devkitPro/libnds/lib\libnds9.a(securearea.o)
                              c:/code/devkitpro/devkitarm/bin/../lib/gcc/arm-none-eabi/6.3.0/../../../../arm-none-eabi/lib/thumb/ds_arm9_crt0.o (__secure_area__)
c:/code/devkitPro/libnds/lib\libnds9.a(interrupts.o)
                              c:/code/devkitPro/libnds/lib\libnds9.a(initSystem.o) (irqInit)
c:/code/devkitPro/libnds/lib\libnds9.a(libnds_exit.arm.o)
                              c:/code/devkitpro/devkitarm/bin/../lib/gcc/arm-none-eabi/6.3.0/../../../../arm-none-eabi/lib/thumb/ds_arm9_crt0.o (__libnds_exit)
c:/code/devkitPro/libnds/lib\libnds9.a(card.o)
                              c:/code/devkitPro/libnds/lib\libfilesystem.a(nitrofs.o) (cardParamCommand)
c:/code/devkitPro/libnds/lib\libnds9.a(fifosystem.o)
                              c:/code/devkitPro/libnds/lib\libnds9.a(initSystem.o) (fifoSetValue32Handler)
c:/code/devkitPro/libnds/lib\libnds9.a(dcache.o)
                              d:/Work/NDS/projects/NFlib/nflib/examples/3dsprites/animation/nflib/lib\libnflib.a(nf_basic.o) (DC_FlushRange)
c:/code/devkitPro/libnds/lib\libnds9.a(dldi_stub.o)
                              c:/code/devkitPro/libnds/lib\libnds9.a(dldi.o) (_io_dldi_stub)
c:/code/devkitPro/libnds/lib\libnds9.a(mpu_setup.o)
                              c:/code/devkitpro/devkitarm/bin/../lib/gcc/arm-none-eabi/6.3.0/../../../../arm-none-eabi/lib/thumb/ds_arm9_crt0.o (__libnds_mpu_setup)
c:/code/devkitPro/libnds/lib\libnds9.a(IntrWait.o)
                              main.o (swiWaitForVBlank)
c:/code/devkitPro/libnds/lib\libnds9.a(cpu_clock.o)
                              c:/code/devkitPro/libnds/lib\libnds9.a(initSystem.o) (setCpuClock)
c:/code/devkitPro/libnds/lib\libnds9.a(interruptDispatcher.o)
                              c:/code/devkitPro/libnds/lib\libnds9.a(interrupts.o) (IntrMain)
c:/code/devkitPro/libnds/lib\libnds9.a(debugprint.o)
                              c:/code/devkitPro/libnds/lib\libnds9.a(console.o) (nocashWrite)
c:/code/devkitPro/libnds/lib\libnds9.a(swiSoftReset.o)
                              c:/code/devkitPro/libnds/lib\libnds9.a(fifosystem.o) (swiSoftReset)
c:/code/devkitPro/libnds/lib\libnds9.a(biosCalls.o)
                              c:/code/devkitPro/libnds/lib\libnds9.a(card.o) (swiDelay)
c:/code/devkitPro/libnds/lib\libnds9.a(default_font.bin.o)
                              c:/code/devkitPro/libnds/lib\libnds9.a(console.o) (default_font_bin)
c:/code/devkitPro/libnds/lib\libnds9.a(dynamicArray.o)
                              c:/code/devkitPro/libnds/lib\libnds9.a(videoGL.o) (DynamicArrayInit)
c:/code/devkitPro/libnds/lib\libnds9.a(sprite_alloc.o)
                              c:/code/devkitPro/libnds/lib\libnds9.a(sprite.o) (oamAllocReset)
c:/code/devkitPro/libnds/lib\libnds9.a(system.o)
                              c:/code/devkitPro/libnds/lib\libnds9.a(initSystem.o) (systemValueHandler)
c:/code/devkitpro/devkitarm/bin/../lib/gcc/arm-none-eabi/6.3.0/thumb\libgcc.a(_udivsi3.o)
                              d:/Work/NDS/projects/NFlib/nflib/examples/3dsprites/animation/nflib/lib\libnflib.a(nf_sprite256.o) (__aeabi_uidiv)
c:/code/devkitpro/devkitarm/bin/../lib/gcc/arm-none-eabi/6.3.0/thumb\libgcc.a(_divsi3.o)
                              c:/code/devkitPro/libnds/lib\libfat.a(directory.o) (__aeabi_idiv)
c:/code/devkitpro/devkitarm/bin/../lib/gcc/arm-none-eabi/6.3.0/thumb\libgcc.a(_dvmd_tls.o)
                              c:/code/devkitpro/devkitarm/bin/../lib/gcc/arm-none-eabi/6.3.0/thumb\libgcc.a(_udivsi3.o) (__aeabi_idiv0)
c:/code/devkitpro/devkitarm/bin/../lib/gcc/arm-none-eabi/6.3.0/thumb\libgcc.a(_aeabi_ldivmod.o)
                              c:/code/devkitPro/libnds/lib\libfat.a(directory.o) (__aeabi_ldivmod)
c:/code/devkitpro/devkitarm/bin/../lib/gcc/arm-none-eabi/6.3.0/thumb\libgcc.a(_muldi3.o)
                              c:/code/devkitPro/libnds/lib\libfat.a(partition.o) (__aeabi_lmul)
c:/code/devkitpro/devkitarm/bin/../lib/gcc/arm-none-eabi/6.3.0/thumb\libgcc.a(_udivmoddi4.o)
                              c:/code/devkitpro/devkitarm/bin/../lib/gcc/arm-none-eabi/6.3.0/thumb\libgcc.a(_aeabi_ldivmod.o) (__udivmoddi4)
c:/code/devkitpro/devkitarm/bin/../lib/gcc/arm-none-eabi/6.3.0/thumb\libgcc.a(_clzdi2.o)
                              c:/code/devkitpro/devkitarm/bin/../lib/gcc/arm-none-eabi/6.3.0/thumb\libgcc.a(_udivmoddi4.o) (__clzdi2)
c:/code/devkitpro/devkitarm/bin/../lib/gcc/arm-none-eabi/6.3.0/thumb\libgcc.a(_clzsi2.o)
                              c:/code/devkitpro/devkitarm/bin/../lib/gcc/arm-none-eabi/6.3.0/thumb\libgcc.a(_clzdi2.o) (__clzsi2)
c:/code/devkitpro/devkitarm/bin/../lib/gcc/arm-none-eabi/6.3.0/../../../../arm-none-eabi/lib/thumb\libg.a(lib_a-bsearch.o)
                              c:/code/devkitPro/libnds/lib\libnds9.a(trig.o) (bsearch)
c:/code/devkitpro/devkitarm/bin/../lib/gcc/arm-none-eabi/6.3.0/../../../../arm-none-eabi/lib/thumb\libg.a(lib_a-calloc.o)
                              d:/Work/NDS/projects/NFlib/nflib/examples/3dsprites/animation/nflib/lib\libnflib.a(nf_sprite256.o) (calloc)
c:/code/devkitpro/devkitarm/bin/../lib/gcc/arm-none-eabi/6.3.0/../../../../arm-none-eabi/lib/thumb\libg.a(lib_a-callocr.o)
                              c:/code/devkitpro/devkitarm/bin/../lib/gcc/arm-none-eabi/6.3.0/../../../../arm-none-eabi/lib/thumb\libg.a(lib_a-calloc.o) (_calloc_r)
c:/code/devkitpro/devkitarm/bin/../lib/gcc/arm-none-eabi/6.3.0/../../../../arm-none-eabi/lib/thumb\libg.a(lib_a-fclose.o)
                              d:/Work/NDS/projects/NFlib/nflib/examples/3dsprites/animation/nflib/lib\libnflib.a(nf_sprite256.o) (fclose)
c:/code/devkitpro/devkitarm/bin/../lib/gcc/arm-none-eabi/6.3.0/../../../../arm-none-eabi/lib/thumb\libg.a(lib_a-fflush.o)
                              c:/code/devkitpro/devkitarm/bin/../lib/gcc/arm-none-eabi/6.3.0/../../../../arm-none-eabi/lib/thumb\libg.a(lib_a-fclose.o) (__sflush_r)
c:/code/devkitpro/devkitarm/bin/../lib/gcc/arm-none-eabi/6.3.0/../../../../arm-none-eabi/lib/thumb\libg.a(lib_a-findfp.o)
                              c:/code/devkitpro/devkitarm/bin/../lib/gcc/arm-none-eabi/6.3.0/../../../../arm-none-eabi/lib/thumb\libg.a(lib_a-fclose.o) (__sinit)
c:/code/devkitpro/devkitarm/bin/../lib/gcc/arm-none-eabi/6.3.0/../../../../arm-none-eabi/lib/thumb\libg.a(lib_a-fopen.o)
                              d:/Work/NDS/projects/NFlib/nflib/examples/3dsprites/animation/nflib/lib\libnflib.a(nf_sprite256.o) (fopen)
c:/code/devkitpro/devkitarm/bin/../lib/gcc/arm-none-eabi/6.3.0/../../../../arm-none-eabi/lib/thumb\libg.a(lib_a-fread.o)
                              d:/Work/NDS/projects/NFlib/nflib/examples/3dsprites/animation/nflib/lib\libnflib.a(nf_sprite256.o) (fread)
c:/code/devkitpro/devkitarm/bin/../lib/gcc/arm-none-eabi/6.3.0/../../../../arm-none-eabi/lib/thumb\libg.a(lib_a-freer.o)
                              c:/code/devkitpro/devkitarm/bin/../lib/gcc/arm-none-eabi/6.3.0/../../../../arm-none-eabi/lib/thumb\libg.a(lib_a-fclose.o) (_free_r)
c:/code/devkitpro/devkitarm/bin/../lib/gcc/arm-none-eabi/6.3.0/../../../../arm-none-eabi/lib/thumb\libg.a(lib_a-fseek.o)
                              c:/code/devkitpro/devkitarm/bin/../lib/gcc/arm-none-eabi/6.3.0/../../../../arm-none-eabi/lib/thumb\libg.a(lib_a-fopen.o) (_fseek_r)
c:/code/devkitpro/devkitarm/bin/../lib/gcc/arm-none-eabi/6.3.0/../../../../arm-none-eabi/lib/thumb\libg.a(lib_a-fseeko.o)
                              c:/code/devkitpro/devkitarm/bin/../lib/gcc/arm-none-eabi/6.3.0/../../../../arm-none-eabi/lib/thumb\libg.a(lib_a-fseek.o) (_fseeko_r)
c:/code/devkitpro/devkitarm/bin/../lib/gcc/arm-none-eabi/6.3.0/../../../../arm-none-eabi/lib/thumb\libg.a(lib_a-ftell.o)
                              d:/Work/NDS/projects/NFlib/nflib/examples/3dsprites/animation/nflib/lib\libnflib.a(nf_sprite256.o) (ftell)
c:/code/devkitpro/devkitarm/bin/../lib/gcc/arm-none-eabi/6.3.0/../../../../arm-none-eabi/lib/thumb\libg.a(lib_a-ftello.o)
                              c:/code/devkitpro/devkitarm/bin/../lib/gcc/arm-none-eabi/6.3.0/../../../../arm-none-eabi/lib/thumb\libg.a(lib_a-ftell.o) (_ftello_r)
c:/code/devkitpro/devkitarm/bin/../lib/gcc/arm-none-eabi/6.3.0/../../../../arm-none-eabi/lib/thumb\libg.a(lib_a-fwalk.o)
                              c:/code/devkitpro/devkitarm/bin/../lib/gcc/arm-none-eabi/6.3.0/../../../../arm-none-eabi/lib/thumb\libg.a(lib_a-findfp.o) (_fwalk)
c:/code/devkitpro/devkitarm/bin/../lib/gcc/arm-none-eabi/6.3.0/../../../../arm-none-eabi/lib/thumb\libg.a(lib_a-impure.o)
                              c:/code/devkitpro/devkitarm/bin/../lib/gcc/arm-none-eabi/6.3.0/../../../../arm-none-eabi/lib/thumb\libg.a(lib_a-fflush.o) (_global_impure_ptr)
c:/code/devkitpro/devkitarm/bin/../lib/gcc/arm-none-eabi/6.3.0/../../../../arm-none-eabi/lib/thumb\libg.a(lib_a-init.o)
                              c:/code/devkitpro/devkitarm/bin/../lib/gcc/arm-none-eabi/6.3.0/../../../../arm-none-eabi/lib/thumb/ds_arm9_crt0.o (__libc_init_array)
c:/code/devkitpro/devkitarm/bin/../lib/gcc/arm-none-eabi/6.3.0/../../../../arm-none-eabi/lib/thumb\libg.a(lib_a-iprintf.o)
                              main.o (iprintf)
c:/code/devkitpro/devkitarm/bin/../lib/gcc/arm-none-eabi/6.3.0/../../../../arm-none-eabi/lib/thumb\libg.a(lib_a-lcltime_r.o)
                              c:/code/devkitPro/libnds/lib\libfat.a(filetime.o) (localtime_r)
c:/code/devkitpro/devkitarm/bin/../lib/gcc/arm-none-eabi/6.3.0/../../../../arm-none-eabi/lib/thumb\libg.a(lib_a-locale.o)
                              c:/code/devkitPro/libnds/lib\libfat.a(directory.o) (__locale_mb_cur_max)
c:/code/devkitpro/devkitarm/bin/../lib/gcc/arm-none-eabi/6.3.0/../../../../arm-none-eabi/lib/thumb\libg.a(lib_a-makebuf.o)
                              c:/code/devkitpro/devkitarm/bin/../lib/gcc/arm-none-eabi/6.3.0/../../../../arm-none-eabi/lib/thumb\libg.a(lib_a-fseeko.o) (__smakebuf_r)
c:/code/devkitpro/devkitarm/bin/../lib/gcc/arm-none-eabi/6.3.0/../../../../arm-none-eabi/lib/thumb\libg.a(lib_a-malloc.o)
                              c:/code/devkitPro/libnds/lib\libfilesystem.a(nitrofs.o) (malloc)
c:/code/devkitpro/devkitarm/bin/../lib/gcc/arm-none-eabi/6.3.0/../../../../arm-none-eabi/lib/thumb\libg.a(lib_a-mallocr.o)
                              c:/code/devkitpro/devkitarm/bin/../lib/gcc/arm-none-eabi/6.3.0/../../../../arm-none-eabi/lib/thumb\libg.a(lib_a-callocr.o) (_malloc_r)
c:/code/devkitpro/devkitarm/bin/../lib/gcc/arm-none-eabi/6.3.0/../../../../arm-none-eabi/lib/thumb\libg.a(lib_a-mbrtowc.o)
                              c:/code/devkitPro/libnds/lib\libfat.a(directory.o) (mbrtowc)
c:/code/devkitpro/devkitarm/bin/../lib/gcc/arm-none-eabi/6.3.0/../../../../arm-none-eabi/lib/thumb\libg.a(lib_a-mbsrtowcs.o)
                              c:/code/devkitPro/libnds/lib\libfat.a(directory.o) (mbsrtowcs)
c:/code/devkitpro/devkitarm/bin/../lib/gcc/arm-none-eabi/6.3.0/../../../../arm-none-eabi/lib/thumb\libg.a(lib_a-mbtowc_r.o)
                              c:/code/devkitpro/devkitarm/bin/../lib/gcc/arm-none-eabi/6.3.0/../../../../arm-none-eabi/lib/thumb\libg.a(lib_a-locale.o) (__ascii_mbtowc)
c:/code/devkitpro/devkitarm/bin/../lib/gcc/arm-none-eabi/6.3.0/../../../../arm-none-eabi/lib/thumb\libg.a(lib_a-memcmp.o)
                              c:/code/devkitPro/libnds/lib\libfilesystem.a(nitrofs.o) (memcmp)
c:/code/devkitpro/devkitarm/bin/../lib/gcc/arm-none-eabi/6.3.0/../../../../arm-none-eabi/lib/thumb\libg.a(lib_a-memcpy-stub.o)
                              d:/Work/NDS/projects/NFlib/nflib/examples/3dsprites/animation/nflib/lib\libnflib.a(nf_basic.o) (memcpy)
c:/code/devkitpro/devkitarm/bin/../lib/gcc/arm-none-eabi/6.3.0/../../../../arm-none-eabi/lib/thumb\libg.a(lib_a-memmove.o)
                              c:/code/devkitPro/libnds/lib\libfat.a(directory.o) (memmove)
c:/code/devkitpro/devkitarm/bin/../lib/gcc/arm-none-eabi/6.3.0/../../../../arm-none-eabi/lib/thumb\libg.a(lib_a-memset.o)
                              d:/Work/NDS/projects/NFlib/nflib/examples/3dsprites/animation/nflib/lib\libnflib.a(nf_sprite256.o) (memset)
c:/code/devkitpro/devkitarm/bin/../lib/gcc/arm-none-eabi/6.3.0/../../../../arm-none-eabi/lib/thumb\libg.a(lib_a-mktime.o)
                              c:/code/devkitPro/libnds/lib\libfat.a(filetime.o) (mktime)
c:/code/devkitpro/devkitarm/bin/../lib/gcc/arm-none-eabi/6.3.0/../../../../arm-none-eabi/lib/thumb\libg.a(lib_a-mlock.o)
                              c:/code/devkitpro/devkitarm/bin/../lib/gcc/arm-none-eabi/6.3.0/../../../../arm-none-eabi/lib/thumb\libg.a(lib_a-freer.o) (__malloc_lock)
c:/code/devkitpro/devkitarm/bin/../lib/gcc/arm-none-eabi/6.3.0/../../../../arm-none-eabi/lib/thumb\libg.a(lib_a-month_lengths.o)
                              c:/code/devkitpro/devkitarm/bin/../lib/gcc/arm-none-eabi/6.3.0/../../../../arm-none-eabi/lib/thumb\libg.a(lib_a-lcltime_r.o) (__month_lengths)
c:/code/devkitpro/devkitarm/bin/../lib/gcc/arm-none-eabi/6.3.0/../../../../arm-none-eabi/lib/thumb\libg.a(lib_a-rand.o)
                              main.o (srand)
c:/code/devkitpro/devkitarm/bin/../lib/gcc/arm-none-eabi/6.3.0/../../../../arm-none-eabi/lib/thumb\libg.a(lib_a-realloc.o)
                              c:/code/devkitPro/libnds/lib\libnds9.a(dynamicArray.o) (realloc)
c:/code/devkitpro/devkitarm/bin/../lib/gcc/arm-none-eabi/6.3.0/../../../../arm-none-eabi/lib/thumb\libg.a(lib_a-reallocr.o)
                              c:/code/devkitpro/devkitarm/bin/../lib/gcc/arm-none-eabi/6.3.0/../../../../arm-none-eabi/lib/thumb\libg.a(lib_a-realloc.o) (_realloc_r)
c:/code/devkitpro/devkitarm/bin/../lib/gcc/arm-none-eabi/6.3.0/../../../../arm-none-eabi/lib/thumb\libg.a(lib_a-refill.o)
                              c:/code/devkitpro/devkitarm/bin/../lib/gcc/arm-none-eabi/6.3.0/../../../../arm-none-eabi/lib/thumb\libg.a(lib_a-fread.o) (__srefill_r)
c:/code/devkitpro/devkitarm/bin/../lib/gcc/arm-none-eabi/6.3.0/../../../../arm-none-eabi/lib/thumb\libg.a(lib_a-rewind.o)
                              d:/Work/NDS/projects/NFlib/nflib/examples/3dsprites/animation/nflib/lib\libnflib.a(nf_sprite256.o) (rewind)
c:/code/devkitpro/devkitarm/bin/../lib/gcc/arm-none-eabi/6.3.0/../../../../arm-none-eabi/lib/thumb\libg.a(lib_a-setvbuf.o)
                              c:/code/devkitPro/libnds/lib\libnds9.a(console.o) (setvbuf)
c:/code/devkitpro/devkitarm/bin/../lib/gcc/arm-none-eabi/6.3.0/../../../../arm-none-eabi/lib/thumb\libg.a(lib_a-siscanf.o)
                              c:/code/devkitPro/libnds/lib\libnds9.a(console.o) (siscanf)
c:/code/devkitpro/devkitarm/bin/../lib/gcc/arm-none-eabi/6.3.0/../../../../arm-none-eabi/lib/thumb\libg.a(lib_a-sprintf.o)
                              d:/Work/NDS/projects/NFlib/nflib/examples/3dsprites/animation/nflib/lib\libnflib.a(nf_2d.o) (sprintf)
c:/code/devkitpro/devkitarm/bin/../lib/gcc/arm-none-eabi/6.3.0/../../../../arm-none-eabi/lib/thumb\libg.a(lib_a-stdio.o)
                              c:/code/devkitpro/devkitarm/bin/../lib/gcc/arm-none-eabi/6.3.0/../../../../arm-none-eabi/lib/thumb\libg.a(lib_a-findfp.o) (__sread)
c:/code/devkitpro/devkitarm/bin/../lib/gcc/arm-none-eabi/6.3.0/../../../../arm-none-eabi/lib/thumb\libg.a(lib_a-stpcpy.o)
                              c:/code/devkitPro/libnds/lib\libfat.a(libfat.o) (stpcpy)
c:/code/devkitpro/devkitarm/bin/../lib/gcc/arm-none-eabi/6.3.0/../../../../arm-none-eabi/lib/thumb\libg.a(lib_a-strcasecmp.o)
                              c:/code/devkitpro/devkitarm/bin/../lib/gcc/arm-none-eabi/6.3.0/../../../../arm-none-eabi/lib/thumb\libg.a(lib_a-locale.o) (strcasecmp)
c:/code/devkitpro/devkitarm/bin/../lib/gcc/arm-none-eabi/6.3.0/../../../../arm-none-eabi/lib/thumb\libg.a(lib_a-strcat.o)
                              c:/code/devkitpro/devkitarm/bin/../lib/gcc/arm-none-eabi/6.3.0/../../../../arm-none-eabi/lib/thumb\libg.a(lib_a-locale.o) (strcat)
c:/code/devkitpro/devkitarm/bin/../lib/gcc/arm-none-eabi/6.3.0/../../../../arm-none-eabi/lib/thumb\libg.a(lib_a-strchr.o)
                              c:/code/devkitPro/libnds/lib\libfilesystem.a(nitrofs.o) (strchr)
c:/code/devkitpro/devkitarm/bin/../lib/gcc/arm-none-eabi/6.3.0/../../../../arm-none-eabi/lib/thumb\libg.a(lib_a-strcmp.o)
                              d:/Work/NDS/projects/NFlib/nflib/examples/3dsprites/animation/nflib/lib\libnflib.a(nf_basic.o) (strcmp)
c:/code/devkitpro/devkitarm/bin/../lib/gcc/arm-none-eabi/6.3.0/../../../../arm-none-eabi/lib/thumb\libg.a(lib_a-strcpy.o)
                              d:/Work/NDS/projects/NFlib/nflib/examples/3dsprites/animation/nflib/lib\libnflib.a(nf_basic.o) (strcpy)
c:/code/devkitpro/devkitarm/bin/../lib/gcc/arm-none-eabi/6.3.0/../../../../arm-none-eabi/lib/thumb\libg.a(lib_a-strdup.o)
                              c:/code/devkitPro/libnds/lib\libfilesystem.a(nitrofs.o) (strdup)
c:/code/devkitpro/devkitarm/bin/../lib/gcc/arm-none-eabi/6.3.0/../../../../arm-none-eabi/lib/thumb\libg.a(lib_a-strdup_r.o)
                              c:/code/devkitpro/devkitarm/bin/../lib/gcc/arm-none-eabi/6.3.0/../../../../arm-none-eabi/lib/thumb\libg.a(lib_a-strdup.o) (_strdup_r)
c:/code/devkitpro/devkitarm/bin/../lib/gcc/arm-none-eabi/6.3.0/../../../../arm-none-eabi/lib/thumb\libg.a(lib_a-strlcpy.o)
                              c:/code/devkitpro/devkitarm/bin/../lib/gcc/arm-none-eabi/6.3.0/../../../../arm-none-eabi/lib/thumb\libg.a(lib_a-locale.o) (strlcpy)
c:/code/devkitpro/devkitarm/bin/../lib/gcc/arm-none-eabi/6.3.0/../../../../arm-none-eabi/lib/thumb\libg.a(lib_a-strlen-stub.o)
                              c:/code/devkitPro/libnds/lib\libfilesystem.a(nitrofs.o) (strlen)
c:/code/devkitpro/devkitarm/bin/../lib/gcc/arm-none-eabi/6.3.0/../../../../arm-none-eabi/lib/thumb\libg.a(lib_a-strncasecmp.o)
                              c:/code/devkitPro/libnds/lib\libfat.a(libfat.o) (strncasecmp)
c:/code/devkitpro/devkitarm/bin/../lib/gcc/arm-none-eabi/6.3.0/../../../../arm-none-eabi/lib/thumb\libg.a(lib_a-strncmp.o)
                              c:/code/devkitPro/libnds/lib\libfilesystem.a(nitrofs.o) (strncmp)
c:/code/devkitpro/devkitarm/bin/../lib/gcc/arm-none-eabi/6.3.0/../../../../arm-none-eabi/lib/thumb\libg.a(lib_a-strncpy.o)
                              c:/code/devkitPro/libnds/lib\libfilesystem.a(nitrofs.o) (strncpy)
c:/code/devkitpro/devkitarm/bin/../lib/gcc/arm-none-eabi/6.3.0/../../../../arm-none-eabi/lib/thumb\libg.a(lib_a-strnlen.o)
                              c:/code/devkitPro/libnds/lib\libfat.a(directory.o) (strnlen)
c:/code/devkitpro/devkitarm/bin/../lib/gcc/arm-none-eabi/6.3.0/../../../../arm-none-eabi/lib/thumb\libg.a(lib_a-strpbrk.o)
                              c:/code/devkitPro/libnds/lib\libfat.a(directory.o) (strpbrk)
c:/code/devkitpro/devkitarm/bin/../lib/gcc/arm-none-eabi/6.3.0/../../../../arm-none-eabi/lib/thumb\libg.a(lib_a-strrchr.o)
                              c:/code/devkitPro/libnds/lib\libfat.a(libfat.o) (strrchr)
c:/code/devkitpro/devkitarm/bin/../lib/gcc/arm-none-eabi/6.3.0/../../../../arm-none-eabi/lib/thumb\libg.a(lib_a-strtol.o)
                              c:/code/devkitpro/devkitarm/bin/../lib/gcc/arm-none-eabi/6.3.0/../../../../arm-none-eabi/lib/thumb\libg.a(lib_a-locale.o) (strtol)
c:/code/devkitpro/devkitarm/bin/../lib/gcc/arm-none-eabi/6.3.0/../../../../arm-none-eabi/lib/thumb\libg.a(lib_a-svfiscanf.o)
                              c:/code/devkitpro/devkitarm/bin/../lib/gcc/arm-none-eabi/6.3.0/../../../../arm-none-eabi/lib/thumb\libg.a(lib_a-siscanf.o) (__ssvfiscanf_r)
c:/code/devkitpro/devkitarm/bin/../lib/gcc/arm-none-eabi/6.3.0/../../../../arm-none-eabi/lib/thumb\libg.a(lib_a-svfprintf.o)
                              c:/code/devkitpro/devkitarm/bin/../lib/gcc/arm-none-eabi/6.3.0/../../../../arm-none-eabi/lib/thumb\libg.a(lib_a-sprintf.o) (_svfprintf_r)
c:/code/devkitpro/devkitarm/bin/../lib/gcc/arm-none-eabi/6.3.0/../../../../arm-none-eabi/lib/thumb\libg.a(lib_a-sysclose.o)
                              c:/code/devkitPro/libnds/lib\libnds9.a(dldi.o) (close)
c:/code/devkitpro/devkitarm/bin/../lib/gcc/arm-none-eabi/6.3.0/../../../../arm-none-eabi/lib/thumb\libg.a(lib_a-syslseek.o)
                              c:/code/devkitPro/libnds/lib\libfilesystem.a(nitrofs.o) (lseek)
c:/code/devkitpro/devkitarm/bin/../lib/gcc/arm-none-eabi/6.3.0/../../../../arm-none-eabi/lib/thumb\libg.a(lib_a-sysopen.o)
                              c:/code/devkitPro/libnds/lib\libfilesystem.a(nitrofs.o) (open)
c:/code/devkitpro/devkitarm/bin/../lib/gcc/arm-none-eabi/6.3.0/../../../../arm-none-eabi/lib/thumb\libg.a(lib_a-sysread.o)
                              c:/code/devkitPro/libnds/lib\libfilesystem.a(nitrofs.o) (read)
c:/code/devkitpro/devkitarm/bin/../lib/gcc/arm-none-eabi/6.3.0/../../../../arm-none-eabi/lib/thumb\libg.a(lib_a-time.o)
                              main.o (time)
c:/code/devkitpro/devkitarm/bin/../lib/gcc/arm-none-eabi/6.3.0/../../../../arm-none-eabi/lib/thumb\libg.a(lib_a-towlower.o)
                              c:/code/devkitPro/libnds/lib\libfat.a(directory.o) (towlower)
c:/code/devkitpro/devkitarm/bin/../lib/gcc/arm-none-eabi/6.3.0/../../../../arm-none-eabi/lib/thumb\libg.a(lib_a-towupper.o)
                              c:/code/devkitPro/libnds/lib\libfat.a(directory.o) (towupper)
c:/code/devkitpro/devkitarm/bin/../lib/gcc/arm-none-eabi/6.3.0/../../../../arm-none-eabi/lib/thumb\libg.a(lib_a-tzcalc_limits.o)
                              c:/code/devkitpro/devkitarm/bin/../lib/gcc/arm-none-eabi/6.3.0/../../../../arm-none-eabi/lib/thumb\libg.a(lib_a-lcltime_r.o) (__tzcalc_limits)
c:/code/devkitpro/devkitarm/bin/../lib/gcc/arm-none-eabi/6.3.0/../../../../arm-none-eabi/lib/thumb\libg.a(lib_a-tzlock.o)
                              c:/code/devkitpro/devkitarm/bin/../lib/gcc/arm-none-eabi/6.3.0/../../../../arm-none-eabi/lib/thumb\libg.a(lib_a-lcltime_r.o) (__tz_lock)
c:/code/devkitpro/devkitarm/bin/../lib/gcc/arm-none-eabi/6.3.0/../../../../arm-none-eabi/lib/thumb\libg.a(lib_a-tzset.o)
                              c:/code/devkitpro/devkitarm/bin/../lib/gcc/arm-none-eabi/6.3.0/../../../../arm-none-eabi/lib/thumb\libg.a(lib_a-lcltime_r.o) (_tzset_unlocked)
c:/code/devkitpro/devkitarm/bin/../lib/gcc/arm-none-eabi/6.3.0/../../../../arm-none-eabi/lib/thumb\libg.a(lib_a-tzset_r.o)
                              c:/code/devkitpro/devkitarm/bin/../lib/gcc/arm-none-eabi/6.3.0/../../../../arm-none-eabi/lib/thumb\libg.a(lib_a-tzset.o) (_tzset_unlocked_r)
c:/code/devkitpro/devkitarm/bin/../lib/gcc/arm-none-eabi/6.3.0/../../../../arm-none-eabi/lib/thumb\libg.a(lib_a-tzvars.o)
                              c:/code/devkitpro/devkitarm/bin/../lib/gcc/arm-none-eabi/6.3.0/../../../../arm-none-eabi/lib/thumb\libg.a(lib_a-tzset_r.o) (_timezone)
c:/code/devkitpro/devkitarm/bin/../lib/gcc/arm-none-eabi/6.3.0/../../../../arm-none-eabi/lib/thumb\libg.a(lib_a-ungetc.o)
                              c:/code/devkitpro/devkitarm/bin/../lib/gcc/arm-none-eabi/6.3.0/../../../../arm-none-eabi/lib/thumb\libg.a(lib_a-svfiscanf.o) (__submore)
c:/code/devkitpro/devkitarm/bin/../lib/gcc/arm-none-eabi/6.3.0/../../../../arm-none-eabi/lib/thumb\libg.a(lib_a-vfiprintf.o)
                              c:/code/devkitpro/devkitarm/bin/../lib/gcc/arm-none-eabi/6.3.0/../../../../arm-none-eabi/lib/thumb\libg.a(lib_a-iprintf.o) (_vfiprintf_r)
c:/code/devkitpro/devkitarm/bin/../lib/gcc/arm-none-eabi/6.3.0/../../../../arm-none-eabi/lib/thumb\libg.a(lib_a-wcrtomb.o)
                              c:/code/devkitpro/devkitarm/bin/../lib/gcc/arm-none-eabi/6.3.0/../../../../arm-none-eabi/lib/thumb\libg.a(lib_a-svfprintf.o) (_wcrtomb_r)
c:/code/devkitpro/devkitarm/bin/../lib/gcc/arm-none-eabi/6.3.0/../../../../arm-none-eabi/lib/thumb\libg.a(lib_a-wcsrtombs.o)
                              c:/code/devkitpro/devkitarm/bin/../lib/gcc/arm-none-eabi/6.3.0/../../../../arm-none-eabi/lib/thumb\libg.a(lib_a-svfprintf.o) (_wcsrtombs_r)
c:/code/devkitpro/devkitarm/bin/../lib/gcc/arm-none-eabi/6.3.0/../../../../arm-none-eabi/lib/thumb\libg.a(lib_a-wctob.o)
                              c:/code/devkitPro/libnds/lib\libfat.a(directory.o) (wctob)
c:/code/devkitpro/devkitarm/bin/../lib/gcc/arm-none-eabi/6.3.0/../../../../arm-none-eabi/lib/thumb\libg.a(lib_a-wctomb_r.o)
                              c:/code/devkitpro/devkitarm/bin/../lib/gcc/arm-none-eabi/6.3.0/../../../../arm-none-eabi/lib/thumb\libg.a(lib_a-locale.o) (__ascii_wctomb)
c:/code/devkitpro/devkitarm/bin/../lib/gcc/arm-none-eabi/6.3.0/../../../../arm-none-eabi/lib/thumb\libg.a(lib_a-wsetup.o)
                              c:/code/devkitpro/devkitarm/bin/../lib/gcc/arm-none-eabi/6.3.0/../../../../arm-none-eabi/lib/thumb\libg.a(lib_a-vfiprintf.o) (__swsetup_r)
c:/code/devkitpro/devkitarm/bin/../lib/gcc/arm-none-eabi/6.3.0/../../../../arm-none-eabi/lib/thumb\libg.a(lib_a-ctype_.o)
                              c:/code/devkitpro/devkitarm/bin/../lib/gcc/arm-none-eabi/6.3.0/../../../../arm-none-eabi/lib/thumb\libg.a(lib_a-locale.o) (__set_ctype)
c:/code/devkitpro/devkitarm/bin/../lib/gcc/arm-none-eabi/6.3.0/../../../../arm-none-eabi/lib/thumb\libg.a(lib_a-div.o)
                              c:/code/devkitpro/devkitarm/bin/../lib/gcc/arm-none-eabi/6.3.0/../../../../arm-none-eabi/lib/thumb\libg.a(lib_a-mktime.o) (div)
c:/code/devkitpro/devkitarm/bin/../lib/gcc/arm-none-eabi/6.3.0/../../../../arm-none-eabi/lib/thumb\libg.a(lib_a-dtoa.o)
                              c:/code/devkitpro/devkitarm/bin/../lib/gcc/arm-none-eabi/6.3.0/../../../../arm-none-eabi/lib/thumb\libg.a(lib_a-svfprintf.o) (_dtoa_r)
c:/code/devkitpro/devkitarm/bin/../lib/gcc/arm-none-eabi/6.3.0/../../../../arm-none-eabi/lib/thumb\libg.a(lib_a-flags.o)
                              c:/code/devkitpro/devkitarm/bin/../lib/gcc/arm-none-eabi/6.3.0/../../../../arm-none-eabi/lib/thumb\libg.a(lib_a-fopen.o) (__sflags)
c:/code/devkitpro/devkitarm/bin/../lib/gcc/arm-none-eabi/6.3.0/../../../../arm-none-eabi/lib/thumb\libg.a(lib_a-fvwrite.o)
                              c:/code/devkitpro/devkitarm/bin/../lib/gcc/arm-none-eabi/6.3.0/../../../../arm-none-eabi/lib/thumb\libg.a(lib_a-vfiprintf.o) (__sfvwrite_r)
c:/code/devkitpro/devkitarm/bin/../lib/gcc/arm-none-eabi/6.3.0/../../../../arm-none-eabi/lib/thumb\libg.a(lib_a-getenv_r.o)
                              c:/code/devkitpro/devkitarm/bin/../lib/gcc/arm-none-eabi/6.3.0/../../../../arm-none-eabi/lib/thumb\libg.a(lib_a-locale.o) (_getenv_r)
c:/code/devkitpro/devkitarm/bin/../lib/gcc/arm-none-eabi/6.3.0/../../../../arm-none-eabi/lib/thumb\libg.a(lib_a-gettzinfo.o)
                              c:/code/devkitpro/devkitarm/bin/../lib/gcc/arm-none-eabi/6.3.0/../../../../arm-none-eabi/lib/thumb\libg.a(lib_a-lcltime_r.o) (__gettzinfo)
c:/code/devkitpro/devkitarm/bin/../lib/gcc/arm-none-eabi/6.3.0/../../../../arm-none-eabi/lib/thumb\libg.a(lib_a-gmtime_r.o)
                              c:/code/devkitpro/devkitarm/bin/../lib/gcc/arm-none-eabi/6.3.0/../../../../arm-none-eabi/lib/thumb\libg.a(lib_a-lcltime_r.o) (gmtime_r)
c:/code/devkitpro/devkitarm/bin/../lib/gcc/arm-none-eabi/6.3.0/../../../../arm-none-eabi/lib/thumb\libg.a(lib_a-iswspace.o)
                              c:/code/devkitpro/devkitarm/bin/../lib/gcc/arm-none-eabi/6.3.0/../../../../arm-none-eabi/lib/thumb\libg.a(lib_a-svfiscanf.o) (iswspace)
c:/code/devkitpro/devkitarm/bin/../lib/gcc/arm-none-eabi/6.3.0/../../../../arm-none-eabi/lib/thumb\libg.a(lib_a-jp2uc.o)
                              c:/code/devkitpro/devkitarm/bin/../lib/gcc/arm-none-eabi/6.3.0/../../../../arm-none-eabi/lib/thumb\libg.a(lib_a-towlower.o) (_jp2uc)
c:/code/devkitpro/devkitarm/bin/../lib/gcc/arm-none-eabi/6.3.0/../../../../arm-none-eabi/lib/thumb\libg.a(lib_a-localeconv.o)
                              c:/code/devkitpro/devkitarm/bin/../lib/gcc/arm-none-eabi/6.3.0/../../../../arm-none-eabi/lib/thumb\libg.a(lib_a-svfprintf.o) (_localeconv_r)
c:/code/devkitpro/devkitarm/bin/../lib/gcc/arm-none-eabi/6.3.0/../../../../arm-none-eabi/lib/thumb\libg.a(lib_a-mbsnrtowcs.o)
                              c:/code/devkitpro/devkitarm/bin/../lib/gcc/arm-none-eabi/6.3.0/../../../../arm-none-eabi/lib/thumb\libg.a(lib_a-mbsrtowcs.o) (_mbsnrtowcs_r)
c:/code/devkitpro/devkitarm/bin/../lib/gcc/arm-none-eabi/6.3.0/../../../../arm-none-eabi/lib/thumb\libg.a(lib_a-memchr-stub.o)
                              c:/code/devkitpro/devkitarm/bin/../lib/gcc/arm-none-eabi/6.3.0/../../../../arm-none-eabi/lib/thumb\libg.a(lib_a-svfprintf.o) (memchr)
c:/code/devkitpro/devkitarm/bin/../lib/gcc/arm-none-eabi/6.3.0/../../../../arm-none-eabi/lib/thumb\libg.a(lib_a-mprec.o)
                              c:/code/devkitpro/devkitarm/bin/../lib/gcc/arm-none-eabi/6.3.0/../../../../arm-none-eabi/lib/thumb\libg.a(lib_a-dtoa.o) (_Balloc)
c:/code/devkitpro/devkitarm/bin/../lib/gcc/arm-none-eabi/6.3.0/../../../../arm-none-eabi/lib/thumb\libg.a(lib_a-sccl.o)
                              c:/code/devkitpro/devkitarm/bin/../lib/gcc/arm-none-eabi/6.3.0/../../../../arm-none-eabi/lib/thumb\libg.a(lib_a-svfiscanf.o) (__sccl)
c:/code/devkitpro/devkitarm/bin/../lib/gcc/arm-none-eabi/6.3.0/../../../../arm-none-eabi/lib/thumb\libg.a(lib_a-s_frexp.o)
                              c:/code/devkitpro/devkitarm/bin/../lib/gcc/arm-none-eabi/6.3.0/../../../../arm-none-eabi/lib/thumb\libg.a(lib_a-svfprintf.o) (frexp)
c:/code/devkitpro/devkitarm/bin/../lib/gcc/arm-none-eabi/6.3.0/../../../../arm-none-eabi/lib/thumb\libg.a(lib_a-strtoll.o)
                              c:/code/devkitpro/devkitarm/bin/../lib/gcc/arm-none-eabi/6.3.0/../../../../arm-none-eabi/lib/thumb\libg.a(lib_a-svfiscanf.o) (_strtoll_r)
c:/code/devkitpro/devkitarm/bin/../lib/gcc/arm-none-eabi/6.3.0/../../../../arm-none-eabi/lib/thumb\libg.a(lib_a-strtoull.o)
                              c:/code/devkitpro/devkitarm/bin/../lib/gcc/arm-none-eabi/6.3.0/../../../../arm-none-eabi/lib/thumb\libg.a(lib_a-svfiscanf.o) (_strtoull_r)
c:/code/devkitpro/devkitarm/bin/../lib/gcc/arm-none-eabi/6.3.0/../../../../arm-none-eabi/lib/thumb\libg.a(lib_a-strtoul.o)
                              c:/code/devkitpro/devkitarm/bin/../lib/gcc/arm-none-eabi/6.3.0/../../../../arm-none-eabi/lib/thumb\libg.a(lib_a-svfiscanf.o) (_strtoul_r)
c:/code/devkitpro/devkitarm/bin/../lib/gcc/arm-none-eabi/6.3.0/../../../../arm-none-eabi/lib/thumb\libg.a(lib_a-svfiprintf.o)
                              c:/code/devkitpro/devkitarm/bin/../lib/gcc/arm-none-eabi/6.3.0/../../../../arm-none-eabi/lib/thumb\libg.a(lib_a-svfprintf.o) (__ssprint_r)
c:/code/devkitpro/devkitarm/bin/../lib/gcc/arm-none-eabi/6.3.0/../../../../arm-none-eabi/lib/thumb\libg.a(lib_a-wcsnrtombs.o)
                              c:/code/devkitpro/devkitarm/bin/../lib/gcc/arm-none-eabi/6.3.0/../../../../arm-none-eabi/lib/thumb\libg.a(lib_a-wcsrtombs.o) (_wcsnrtombs_r)
c:/code/devkitpro/devkitarm/bin/../lib/gcc/arm-none-eabi/6.3.0/../../../../arm-none-eabi/lib/thumb\libg.a(lib_a-environ.o)
                              c:/code/devkitpro/devkitarm/bin/../lib/gcc/arm-none-eabi/6.3.0/../../../../arm-none-eabi/lib/thumb\libg.a(lib_a-getenv_r.o) (environ)
c:/code/devkitpro/devkitarm/bin/../lib/gcc/arm-none-eabi/6.3.0/../../../../arm-none-eabi/lib/thumb\libg.a(lib_a-envlock.o)
                              c:/code/devkitpro/devkitarm/bin/../lib/gcc/arm-none-eabi/6.3.0/../../../../arm-none-eabi/lib/thumb\libg.a(lib_a-getenv_r.o) (__env_lock)
c:/code/devkitpro/devkitarm/bin/../lib/gcc/arm-none-eabi/6.3.0/../../../../arm-none-eabi/lib/thumb\libsysbase.a(iosupport.o)
                              c:/code/devkitPro/libnds/lib\libfat.a(libfat.o) (FindDevice)
c:/code/devkitpro/devkitarm/bin/../lib/gcc/arm-none-eabi/6.3.0/../../../../arm-none-eabi/lib/thumb\libsysbase.a(close.o)
                              c:/code/devkitpro/devkitarm/bin/../lib/gcc/arm-none-eabi/6.3.0/../../../../arm-none-eabi/lib/thumb\libg.a(lib_a-stdio.o) (_close_r)
c:/code/devkitpro/devkitarm/bin/../lib/gcc/arm-none-eabi/6.3.0/../../../../arm-none-eabi/lib/thumb\libsysbase.a(fstat.o)
                              c:/code/devkitpro/devkitarm/bin/../lib/gcc/arm-none-eabi/6.3.0/../../../../arm-none-eabi/lib/thumb\libg.a(lib_a-fseeko.o) (_fstat_r)
c:/code/devkitpro/devkitarm/bin/../lib/gcc/arm-none-eabi/6.3.0/../../../../arm-none-eabi/lib/thumb\libsysbase.a(gettod.o)
                              c:/code/devkitpro/devkitarm/bin/../lib/gcc/arm-none-eabi/6.3.0/../../../../arm-none-eabi/lib/thumb\libg.a(lib_a-time.o) (_gettimeofday_r)
c:/code/devkitpro/devkitarm/bin/../lib/gcc/arm-none-eabi/6.3.0/../../../../arm-none-eabi/lib/thumb\libsysbase.a(isatty.o)
                              c:/code/devkitpro/devkitarm/bin/../lib/gcc/arm-none-eabi/6.3.0/../../../../arm-none-eabi/lib/thumb\libg.a(lib_a-makebuf.o) (_isatty_r)
c:/code/devkitpro/devkitarm/bin/../lib/gcc/arm-none-eabi/6.3.0/../../../../arm-none-eabi/lib/thumb\libsysbase.a(lseek.o)
                              c:/code/devkitpro/devkitarm/bin/../lib/gcc/arm-none-eabi/6.3.0/../../../../arm-none-eabi/lib/thumb\libg.a(lib_a-stdio.o) (_lseek_r)
c:/code/devkitpro/devkitarm/bin/../lib/gcc/arm-none-eabi/6.3.0/../../../../arm-none-eabi/lib/thumb\libsysbase.a(open.o)
                              c:/code/devkitpro/devkitarm/bin/../lib/gcc/arm-none-eabi/6.3.0/../../../../arm-none-eabi/lib/thumb\libg.a(lib_a-fopen.o) (_open_r)
c:/code/devkitpro/devkitarm/bin/../lib/gcc/arm-none-eabi/6.3.0/../../../../arm-none-eabi/lib/thumb\libsysbase.a(read.o)
                              c:/code/devkitpro/devkitarm/bin/../lib/gcc/arm-none-eabi/6.3.0/../../../../arm-none-eabi/lib/thumb\libg.a(lib_a-stdio.o) (_read_r)
c:/code/devkitpro/devkitarm/bin/../lib/gcc/arm-none-eabi/6.3.0/../../../../arm-none-eabi/lib/thumb\libsysbase.a(sbrk.o)
                              c:/code/devkitpro/devkitarm/bin/../lib/gcc/arm-none-eabi/6.3.0/../../../../arm-none-eabi/lib/thumb\libg.a(lib_a-freer.o) (_sbrk_r)
c:/code/devkitpro/devkitarm/bin/../lib/gcc/arm-none-eabi/6.3.0/../../../../arm-none-eabi/lib/thumb\libsysbase.a(write.o)
                              c:/code/devkitpro/devkitarm/bin/../lib/gcc/arm-none-eabi/6.3.0/../../../../arm-none-eabi/lib/thumb\libg.a(lib_a-stdio.o) (_write_r)
c:/code/devkitpro/devkitarm/bin/../lib/gcc/arm-none-eabi/6.3.0/../../../../arm-none-eabi/lib/thumb\libsysbase.a(malloc_vars.o)
                              c:/code/devkitpro/devkitarm/bin/../lib/gcc/arm-none-eabi/6.3.0/../../../../arm-none-eabi/lib/thumb/ds_arm9_crt0.o (fake_heap_start)
c:/code/devkitpro/devkitarm/bin/../lib/gcc/arm-none-eabi/6.3.0/../../../../arm-none-eabi/lib/thumb\libsysbase.a(chdir.o)
                              d:/Work/NDS/projects/NFlib/nflib/examples/3dsprites/animation/nflib/lib\libnflib.a(nf_basic.o) (chdir)
c:/code/devkitpro/devkitarm/bin/../lib/gcc/arm-none-eabi/6.3.0/../../../../arm-none-eabi/lib/thumb\libsysbase.a(build_argv.o)
                              c:/code/devkitpro/devkitarm/bin/../lib/gcc/arm-none-eabi/6.3.0/../../../../arm-none-eabi/lib/thumb/ds_arm9_crt0.o (build_argv)
c:/code/devkitpro/devkitarm/bin/../lib/gcc/arm-none-eabi/6.3.0/../../../../arm-none-eabi/lib/thumb\libsysbase.a(flock.o)
                              c:/code/devkitpro/devkitarm/bin/../lib/gcc/arm-none-eabi/6.3.0/../../../../arm-none-eabi/lib/thumb\libg.a(lib_a-fclose.o) (__flockfile)
c:/code/devkitpro/devkitarm/bin/../lib/gcc/arm-none-eabi/6.3.0/../../../../arm-none-eabi/lib/thumb\libsysbase.a(syscall_support.o)
                              c:/code/devkitpro/devkitarm/bin/../lib/gcc/arm-none-eabi/6.3.0/../../../../arm-none-eabi/lib/thumb\libg.a(lib_a-tzlock.o) (__libc_lock_acquire)
c:/code/devkitpro/devkitarm/bin/../lib/gcc/arm-none-eabi/6.3.0/../../../../arm-none-eabi/lib/thumb\libsysbase.a(handle_manager.o)
                              c:/code/devkitpro/devkitarm/bin/../lib/gcc/arm-none-eabi/6.3.0/../../../../arm-none-eabi/lib/thumb\libsysbase.a(close.o) (__release_handle)
c:/code/devkitpro/devkitarm/bin/../lib/gcc/arm-none-eabi/6.3.0/../../../../arm-none-eabi/lib/thumb\libsysbase.a(getreent.o)
                              c:/code/devkitPro/libnds/lib\libnds9.a(console.o) (__getreent)
c:/code/devkitpro/devkitarm/bin/../lib/gcc/arm-none-eabi/6.3.0/thumb\libgcc.a(_arm_addsubdf3.o)
                              c:/code/devkitpro/devkitarm/bin/../lib/gcc/arm-none-eabi/6.3.0/../../../../arm-none-eabi/lib/thumb\libg.a(lib_a-svfprintf.o) (__aeabi_dsub)
c:/code/devkitpro/devkitarm/bin/../lib/gcc/arm-none-eabi/6.3.0/thumb\libgcc.a(_arm_muldivdf3.o)
                              c:/code/devkitpro/devkitarm/bin/../lib/gcc/arm-none-eabi/6.3.0/../../../../arm-none-eabi/lib/thumb\libg.a(lib_a-svfprintf.o) (__aeabi_dmul)
c:/code/devkitpro/devkitarm/bin/../lib/gcc/arm-none-eabi/6.3.0/thumb\libgcc.a(_arm_cmpdf2.o)
                              c:/code/devkitpro/devkitarm/bin/../lib/gcc/arm-none-eabi/6.3.0/../../../../arm-none-eabi/lib/thumb\libg.a(lib_a-svfprintf.o) (__aeabi_dcmpeq)
c:/code/devkitpro/devkitarm/bin/../lib/gcc/arm-none-eabi/6.3.0/thumb\libgcc.a(_arm_unorddf2.o)
                              c:/code/devkitpro/devkitarm/bin/../lib/gcc/arm-none-eabi/6.3.0/../../../../arm-none-eabi/lib/thumb\libg.a(lib_a-svfprintf.o) (__aeabi_dcmpun)
c:/code/devkitpro/devkitarm/bin/../lib/gcc/arm-none-eabi/6.3.0/thumb\libgcc.a(_arm_fixdfsi.o)
                              c:/code/devkitpro/devkitarm/bin/../lib/gcc/arm-none-eabi/6.3.0/../../../../arm-none-eabi/lib/thumb\libg.a(lib_a-svfprintf.o) (__aeabi_d2iz)
c:/code/devkitpro/devkitarm/bin/../lib/gcc/arm-none-eabi/6.3.0/thumb\libgcc.a(_aeabi_uldivmod.o)
                              c:/code/devkitpro/devkitarm/bin/../lib/gcc/arm-none-eabi/6.3.0/../../../../arm-none-eabi/lib/thumb\libg.a(lib_a-svfprintf.o) (__aeabi_uldivmod)
c:/code/devkitpro/devkitarm/bin/../lib/gcc/arm-none-eabi/6.3.0/../../../../arm-none-eabi/lib/thumb\libg.a(lib_a-errno.o)
                              c:/code/devkitpro/devkitarm/bin/../lib/gcc/arm-none-eabi/6.3.0/../../../../arm-none-eabi/lib/thumb\libsysbase.a(handle_manager.o) (__errno)

Allocating common symbols
Common symbol       size              file

currentCopy         0x5c              c:/code/devkitPro/libnds/lib\libnds9.a(console.o)
NF_BUFFER_BGTILES   0x100             d:/Work/NDS/projects/NFlib/nflib/examples/3dsprites/animation/nflib/lib\libnflib.a(nf_tiledbg.o)
NF_TILEBLOCKS       0x10              d:/Work/NDS/projects/NFlib/nflib/examples/3dsprites/animation/nflib/lib\libnflib.a(nf_tiledbg.o)
NF_BUFFER_BGMAP     0x100             d:/Work/NDS/projects/NFlib/nflib/examples/3dsprites/animation/nflib/lib\libnflib.a(nf_tiledbg.o)
NF_SPR256GFX        0xc00             d:/Work/NDS/projects/NFlib/nflib/examples/3dsprites/animation/nflib/lib\libnflib.a(nf_sprite256.o)
fifo_datamsg_data   0x40              c:/code/devkitPro/libnds/lib\libnds9.a(fifosystem.o)
__dsimode           0x1               c:/code/devkitPro/libnds/lib\libnds9.a(initSystem.o)
NF_BANKS_TILES      0x2               d:/Work/NDS/projects/NFlib/nflib/examples/3dsprites/animation/nflib/lib\libnflib.a(nf_tiledbg.o)
bgState             0x140             c:/code/devkitPro/libnds/lib\libnds9.a(background.o)
fifo_buffer         0x800             c:/code/devkitPro/libnds/lib\libnds9.a(fifosystem.o)
NF_TEXVRAM          0x818             d:/Work/NDS/projects/NFlib/nflib/examples/3dsprites/animation/nflib/lib\libnflib.a(nf_sprite3d.o)
NF_BUFFER_SPR256PAL
                    0x100             d:/Work/NDS/projects/NFlib/nflib/examples/3dsprites/animation/nflib/lib\libnflib.a(nf_sprite256.o)
bgIsTextLut         0x8               c:/code/devkitPro/libnds/lib\libnds9.a(background.o)
NF_TEXPALSLOT       0x40              d:/Work/NDS/projects/NFlib/nflib/examples/3dsprites/animation/nflib/lib\libnflib.a(nf_sprite3d.o)
fifo_value32_func   0x40              c:/code/devkitPro/libnds/lib\libnds9.a(fifosystem.o)
fifo_address_func   0x40              c:/code/devkitPro/libnds/lib\libnds9.a(fifosystem.o)
NF_BUFFER_SPR256GFX
                    0x400             d:/Work/NDS/projects/NFlib/nflib/examples/3dsprites/animation/nflib/lib\libnflib.a(nf_sprite256.o)
NF_SPRITEOAM        0x2400            d:/Work/NDS/projects/NFlib/nflib/examples/3dsprites/animation/nflib/lib\libnflib.a(nf_sprite256.o)
NF_SPR256VRAM       0x1400            d:/Work/NDS/projects/NFlib/nflib/examples/3dsprites/animation/nflib/lib\libnflib.a(nf_sprite256.o)
NF_ROOTFOLDER       0x20              d:/Work/NDS/projects/NFlib/nflib/examples/3dsprites/animation/nflib/lib\libnflib.a(nf_basic.o)
NF_3DSPRITE         0x4000            d:/Work/NDS/projects/NFlib/nflib/examples/3dsprites/animation/nflib/lib\libnflib.a(nf_sprite3d.o)
fifo_value32_data   0x40              c:/code/devkitPro/libnds/lib\libnds9.a(fifosystem.o)
NF_SPRVRAM          0x838             d:/Work/NDS/projects/NFlib/nflib/examples/3dsprites/animation/nflib/lib\libnflib.a(nf_sprite256.o)
NF_BANKS_MAPS       0x2               d:/Work/NDS/projects/NFlib/nflib/examples/3dsprites/animation/nflib/lib\libnflib.a(nf_tiledbg.o)
fifo_value32_queue  0x40              c:/code/devkitPro/libnds/lib\libnds9.a(fifosystem.o)
fifo_data_queue     0x40              c:/code/devkitPro/libnds/lib\libnds9.a(fifosystem.o)
OamMemorySub        0x400             c:/code/devkitPro/libnds/lib\libnds9.a(sprite.o)
NF_SPRPALSLOT       0x40              d:/Work/NDS/projects/NFlib/nflib/examples/3dsprites/animation/nflib/lib\libnflib.a(nf_sprite256.o)
NF_EXBGPAL          0x600             d:/Work/NDS/projects/NFlib/nflib/examples/3dsprites/animation/nflib/lib\libnflib.a(nf_tiledbg.o)
NF_TILEDBG_LAYERS   0x90              d:/Work/NDS/projects/NFlib/nflib/examples/3dsprites/animation/nflib/lib\libnflib.a(nf_tiledbg.o)
NF_MAPBLOCKS        0x20              d:/Work/NDS/projects/NFlib/nflib/examples/3dsprites/animation/nflib/lib\libnflib.a(nf_tiledbg.o)
NF_SPR256PAL        0x200             d:/Work/NDS/projects/NFlib/nflib/examples/3dsprites/animation/nflib/lib\libnflib.a(nf_sprite256.o)
NF_BUFFER_BGPAL     0x100             d:/Work/NDS/projects/NFlib/nflib/examples/3dsprites/animation/nflib/lib\libnflib.a(nf_tiledbg.o)
NF_CREATED_3DSPRITE
                    0x402             d:/Work/NDS/projects/NFlib/nflib/examples/3dsprites/animation/nflib/lib\libnflib.a(nf_sprite3d.o)
punixTime           0x4               c:/code/devkitPro/libnds/lib\libnds9.a(timeSupport.o)
NF_TILEDBG          0xd00             d:/Work/NDS/projects/NFlib/nflib/examples/3dsprites/animation/nflib/lib\libnflib.a(nf_tiledbg.o)
fifo_address_data   0x40              c:/code/devkitPro/libnds/lib\libnds9.a(fifosystem.o)
NF_TEX256VRAM       0x1400            d:/Work/NDS/projects/NFlib/nflib/examples/3dsprites/animation/nflib/lib\libnflib.a(nf_sprite3d.o)
glGlobalData        0x54              c:/code/devkitPro/libnds/lib\libnds9.a(videoGL.o)
fifo_datamsg_func   0x40              c:/code/devkitPro/libnds/lib\libnds9.a(fifosystem.o)
OamMemory           0x400             c:/code/devkitPro/libnds/lib\libnds9.a(sprite.o)
fifo_address_queue  0x40              c:/code/devkitPro/libnds/lib\libnds9.a(fifosystem.o)

Discarded input sections

 .text          0x00000000        0x0 c:/code/devkitpro/devkitarm/bin/../lib/gcc/arm-none-eabi/6.3.0/../../../../arm-none-eabi/lib/thumb/ds_arm9_crt0.o
 .data          0x00000000        0x0 c:/code/devkitpro/devkitarm/bin/../lib/gcc/arm-none-eabi/6.3.0/../../../../arm-none-eabi/lib/thumb/ds_arm9_crt0.o
 .bss           0x00000000        0x0 c:/code/devkitpro/devkitarm/bin/../lib/gcc/arm-none-eabi/6.3.0/../../../../arm-none-eabi/lib/thumb/ds_arm9_crt0.o
 .text          0x00000000        0x0 c:/code/devkitpro/devkitarm/bin/../lib/gcc/arm-none-eabi/6.3.0/thumb/crti.o
 .data          0x00000000        0x0 c:/code/devkitpro/devkitarm/bin/../lib/gcc/arm-none-eabi/6.3.0/thumb/crti.o
 .bss           0x00000000        0x0 c:/code/devkitpro/devkitarm/bin/../lib/gcc/arm-none-eabi/6.3.0/thumb/crti.o
 .text          0x00000000        0x0 c:/code/devkitpro/devkitarm/bin/../lib/gcc/arm-none-eabi/6.3.0/thumb/crtbegin.o
 .data          0x00000000        0x0 c:/code/devkitpro/devkitarm/bin/../lib/gcc/arm-none-eabi/6.3.0/thumb/crtbegin.o
 .bss           0x00000000        0x0 c:/code/devkitpro/devkitarm/bin/../lib/gcc/arm-none-eabi/6.3.0/thumb/crtbegin.o
 .data.__dso_handle
                0x00000000        0x4 c:/code/devkitpro/devkitarm/bin/../lib/gcc/arm-none-eabi/6.3.0/thumb/crtbegin.o
 .text          0x00000000        0x0 main.o
 .data          0x00000000        0x0 main.o
 .bss           0x00000000        0x0 main.o
 .data          0x00000000        0x0 d:/Work/NDS/projects/NFlib/nflib/examples/3dsprites/animation/nflib/lib\libnflib.a(nf_2d.o)
 .bss           0x00000000        0x0 d:/Work/NDS/projects/NFlib/nflib/examples/3dsprites/animation/nflib/lib\libnflib.a(nf_2d.o)
 .data          0x00000000        0x0 d:/Work/NDS/projects/NFlib/nflib/examples/3dsprites/animation/nflib/lib\libnflib.a(nf_3d.o)
 .bss           0x00000000        0x0 d:/Work/NDS/projects/NFlib/nflib/examples/3dsprites/animation/nflib/lib\libnflib.a(nf_3d.o)
 .data          0x00000000        0x0 d:/Work/NDS/projects/NFlib/nflib/examples/3dsprites/animation/nflib/lib\libnflib.a(nf_basic.o)
 .bss           0x00000000        0x0 d:/Work/NDS/projects/NFlib/nflib/examples/3dsprites/animation/nflib/lib\libnflib.a(nf_basic.o)
 .data          0x00000000        0x0 d:/Work/NDS/projects/NFlib/nflib/examples/3dsprites/animation/nflib/lib\libnflib.a(nf_sprite256.o)
 .bss           0x00000000        0x0 d:/Work/NDS/projects/NFlib/nflib/examples/3dsprites/animation/nflib/lib\libnflib.a(nf_sprite256.o)
 .data          0x00000000        0x0 d:/Work/NDS/projects/NFlib/nflib/examples/3dsprites/animation/nflib/lib\libnflib.a(nf_sprite3d.o)
 .bss           0x00000000        0x0 d:/Work/NDS/projects/NFlib/nflib/examples/3dsprites/animation/nflib/lib\libnflib.a(nf_sprite3d.o)
 .data          0x00000000        0x0 d:/Work/NDS/projects/NFlib/nflib/examples/3dsprites/animation/nflib/lib\libnflib.a(nf_tiledbg.o)
 .bss           0x00000000        0x0 d:/Work/NDS/projects/NFlib/nflib/examples/3dsprites/animation/nflib/lib\libnflib.a(nf_tiledbg.o)
 .text          0x00000000        0x0 c:/code/devkitPro/libnds/lib\libfilesystem.a(nitrofs.o)
 .data          0x00000000        0x0 c:/code/devkitPro/libnds/lib\libfilesystem.a(nitrofs.o)
 .bss           0x00000000        0x0 c:/code/devkitPro/libnds/lib\libfilesystem.a(nitrofs.o)
 .text          0x00000000        0x0 c:/code/devkitPro/libnds/lib\libfat.a(libfat.o)
 .data          0x00000000        0x0 c:/code/devkitPro/libnds/lib\libfat.a(libfat.o)
 .bss           0x00000000        0x0 c:/code/devkitPro/libnds/lib\libfat.a(libfat.o)
 .text.fatMountSimple
                0x00000000       0x14 c:/code/devkitPro/libnds/lib\libfat.a(libfat.o)
 .text.fatUnmount
                0x00000000       0x34 c:/code/devkitPro/libnds/lib\libfat.a(libfat.o)
 .text.fatGetVolumeLabel
                0x00000000       0xdc c:/code/devkitPro/libnds/lib\libfat.a(libfat.o)
 .rodata.fatGetVolumeLabel.str1.4
                0x00000000        0x8 c:/code/devkitPro/libnds/lib\libfat.a(libfat.o)
 .text          0x00000000        0x0 c:/code/devkitPro/libnds/lib\libfat.a(partition.o)
 .data          0x00000000        0x0 c:/code/devkitPro/libnds/lib\libfat.a(partition.o)
 .bss           0x00000000        0x0 c:/code/devkitPro/libnds/lib\libfat.a(partition.o)
 .text._FAT_partition_writeFSinfo.part.7
                0x00000000       0x98 c:/code/devkitPro/libnds/lib\libfat.a(partition.o)
 .text.FindFirstValidPartition
                0x00000000       0x28 c:/code/devkitPro/libnds/lib\libfat.a(partition.o)
 .text._FAT_partition_destructor
                0x00000000       0x48 c:/code/devkitPro/libnds/lib\libfat.a(partition.o)
 .text._FAT_partition_readFSinfo
                0x00000000       0x10 c:/code/devkitPro/libnds/lib\libfat.a(partition.o)
 .text._FAT_partition_writeFSinfo
                0x00000000       0x10 c:/code/devkitPro/libnds/lib\libfat.a(partition.o)
 .text._FAT_getCwdClusterPtr
                0x00000000       0x1c c:/code/devkitPro/libnds/lib\libfat.a(partition.o)
 .text          0x00000000        0x0 c:/code/devkitPro/libnds/lib\libfat.a(lock.o)
 .data          0x00000000        0x0 c:/code/devkitPro/libnds/lib\libfat.a(lock.o)
 .bss           0x00000000        0x0 c:/code/devkitPro/libnds/lib\libfat.a(lock.o)
 .text._FAT_lock_deinit
                0x00000000        0x4 c:/code/devkitPro/libnds/lib\libfat.a(lock.o)
 .text          0x00000000        0x0 c:/code/devkitPro/libnds/lib\libfat.a(fatdir.o)
 .data          0x00000000        0x0 c:/code/devkitPro/libnds/lib\libfat.a(fatdir.o)
 .bss           0x00000000        0x0 c:/code/devkitPro/libnds/lib\libfat.a(fatdir.o)
 .text          0x00000000        0x0 c:/code/devkitPro/libnds/lib\libfat.a(cache.o)
 .data          0x00000000        0x0 c:/code/devkitPro/libnds/lib\libfat.a(cache.o)
 .bss           0x00000000        0x0 c:/code/devkitPro/libnds/lib\libfat.a(cache.o)
 .text._FAT_cache_destructor
                0x00000000       0x34 c:/code/devkitPro/libnds/lib\libfat.a(cache.o)
 .text._FAT_cache_invalidate
                0x00000000       0x30 c:/code/devkitPro/libnds/lib\libfat.a(cache.o)
 .text          0x00000000        0x0 c:/code/devkitPro/libnds/lib\libfat.a(fatfile.o)
 .data          0x00000000        0x0 c:/code/devkitPro/libnds/lib\libfat.a(fatfile.o)
 .bss           0x00000000        0x0 c:/code/devkitPro/libnds/lib\libfat.a(fatfile.o)
 .text._FAT_findEntry
                0x00000000       0x40 c:/code/devkitPro/libnds/lib\libfat.a(fatfile.o)
 .text.FAT_getAttr
                0x00000000       0x1c c:/code/devkitPro/libnds/lib\libfat.a(fatfile.o)
 .text.FAT_setAttr
                0x00000000       0xac c:/code/devkitPro/libnds/lib\libfat.a(fatfile.o)
 .text._FAT_syncToDisc
                0x00000000       0x20 c:/code/devkitPro/libnds/lib\libfat.a(fatfile.o)
 .text          0x00000000        0x0 c:/code/devkitPro/libnds/lib\libfat.a(disc.o)
 .data          0x00000000        0x0 c:/code/devkitPro/libnds/lib\libfat.a(disc.o)
 .bss           0x00000000        0x0 c:/code/devkitPro/libnds/lib\libfat.a(disc.o)
 .text          0x00000000        0x0 c:/code/devkitPro/libnds/lib\libfat.a(file_allocation_table.o)
 .data          0x00000000        0x0 c:/code/devkitPro/libnds/lib\libfat.a(file_allocation_table.o)
 .bss           0x00000000        0x0 c:/code/devkitPro/libnds/lib\libfat.a(file_allocation_table.o)
 .text          0x00000000        0x0 c:/code/devkitPro/libnds/lib\libfat.a(filetime.o)
 .data          0x00000000        0x0 c:/code/devkitPro/libnds/lib\libfat.a(filetime.o)
 .bss           0x00000000        0x0 c:/code/devkitPro/libnds/lib\libfat.a(filetime.o)
 .text          0x00000000        0x0 c:/code/devkitPro/libnds/lib\libfat.a(directory.o)
 .data          0x00000000        0x0 c:/code/devkitPro/libnds/lib\libfat.a(directory.o)
 .bss           0x00000000        0x0 c:/code/devkitPro/libnds/lib\libfat.a(directory.o)
 .text._FAT_directory_getVolumeLabel
                0x00000000       0xb0 c:/code/devkitPro/libnds/lib\libfat.a(directory.o)
 .text          0x00000000        0x0 c:/code/devkitPro/libnds/lib\libnds9.a(console.o)
 .data          0x00000000        0x0 c:/code/devkitPro/libnds/lib\libnds9.a(console.o)
 .bss           0x00000000        0x0 c:/code/devkitPro/libnds/lib\libnds9.a(console.o)
 .text.nocash_write
                0x00000000       0x10 c:/code/devkitPro/libnds/lib\libnds9.a(console.o)
 .text.consoleGetDefault
                0x00000000        0x8 c:/code/devkitPro/libnds/lib\libnds9.a(console.o)
 .text.consoleSelect
                0x00000000       0x10 c:/code/devkitPro/libnds/lib\libnds9.a(console.o)
 .text.consoleDebugInit
                0x00000000       0x50 c:/code/devkitPro/libnds/lib\libnds9.a(console.o)
 .text.consoleSetFont
                0x00000000       0x20 c:/code/devkitPro/libnds/lib\libnds9.a(console.o)
 .text.consoleSetWindow
                0x00000000       0x20 c:/code/devkitPro/libnds/lib\libnds9.a(console.o)
 .rodata.dotab_nocash
                0x00000000       0x68 c:/code/devkitPro/libnds/lib\libnds9.a(console.o)
 .rodata.dotab_null
                0x00000000       0x68 c:/code/devkitPro/libnds/lib\libnds9.a(console.o)
 .text          0x00000000        0x0 c:/code/devkitPro/libnds/lib\libnds9.a(video.o)
 .data          0x00000000        0x0 c:/code/devkitPro/libnds/lib\libnds9.a(video.o)
 .bss           0x00000000        0x0 c:/code/devkitPro/libnds/lib\libnds9.a(video.o)
 .text.vramSetMainBanks
                0x00000000       0x44 c:/code/devkitPro/libnds/lib\libnds9.a(video.o)
 .text.vramSetPrimaryBanks
                0x00000000        0x8 c:/code/devkitPro/libnds/lib\libnds9.a(video.o)
 .text.vramSetBanks_EFG
                0x00000000       0x38 c:/code/devkitPro/libnds/lib\libnds9.a(video.o)
 .text.vramRestorePrimaryBanks
                0x00000000        0xc c:/code/devkitPro/libnds/lib\libnds9.a(video.o)
 .text.vramRestoreMainBanks
                0x00000000        0xc c:/code/devkitPro/libnds/lib\libnds9.a(video.o)
 .text.vramRestoreBanks_EFG
                0x00000000        0xc c:/code/devkitPro/libnds/lib\libnds9.a(video.o)
 .text          0x00000000        0x0 c:/code/devkitPro/libnds/lib\libnds9.a(background.o)
 .data          0x00000000        0x0 c:/code/devkitPro/libnds/lib\libnds9.a(background.o)
 .bss           0x00000000        0x0 c:/code/devkitPro/libnds/lib\libnds9.a(background.o)
 .text.bgIsText
                0x00000000        0xc c:/code/devkitPro/libnds/lib\libnds9.a(background.o)
 .text.checkIfText
                0x00000000       0x28 c:/code/devkitPro/libnds/lib\libnds9.a(background.o)
 .text          0x00000000        0x0 c:/code/devkitPro/libnds/lib\libnds9.a(trig.o)
 .data          0x00000000        0x0 c:/code/devkitPro/libnds/lib\libnds9.a(trig.o)
 .bss           0x00000000        0x0 c:/code/devkitPro/libnds/lib\libnds9.a(trig.o)
 .text.asinComp
                0x00000000       0x24 c:/code/devkitPro/libnds/lib\libnds9.a(trig.o)
 .text.sinLutLookup
                0x00000000       0x38 c:/code/devkitPro/libnds/lib\libnds9.a(trig.o)
 .text.tanLutLookup
                0x00000000       0x34 c:/code/devkitPro/libnds/lib\libnds9.a(trig.o)
 .text.tanLerp  0x00000000       0xa0 c:/code/devkitPro/libnds/lib\libnds9.a(trig.o)
 .text.asinLerp
                0x00000000       0x7c c:/code/devkitPro/libnds/lib\libnds9.a(trig.o)
 .text.acosLerp
                0x00000000       0x14 c:/code/devkitPro/libnds/lib\libnds9.a(trig.o)
 .text.atanComp
                0x00000000       0x24 c:/code/devkitPro/libnds/lib\libnds9.a(trig.o)
 .rodata.TAN_LUT
                0x00000000      0x204 c:/code/devkitPro/libnds/lib\libnds9.a(trig.o)
 .text          0x00000000        0x0 c:/code/devkitPro/libnds/lib\libnds9.a(videoGL.o)
 .data          0x00000000        0x0 c:/code/devkitPro/libnds/lib\libnds9.a(videoGL.o)
 .bss           0x00000000        0x0 c:/code/devkitPro/libnds/lib\libnds9.a(videoGL.o)
 .text.vramBlock__deallocateBlock.part.0
                0x00000000      0x118 c:/code/devkitPro/libnds/lib\libnds9.a(videoGL.o)
 .text.glGetGlobals
                0x00000000        0x8 c:/code/devkitPro/libnds/lib\libnds9.a(videoGL.o)
 .text.glRotatef32i
                0x00000000      0x2bc c:/code/devkitPro/libnds/lib\libnds9.a(videoGL.o)
 .text.glMaterialf
                0x00000000       0x7c c:/code/devkitPro/libnds/lib\libnds9.a(videoGL.o)
 .rodata.glMaterialf
                0x00000000       0x44 c:/code/devkitPro/libnds/lib\libnds9.a(videoGL.o)
 .text.glTexCoord2f32
                0x00000000       0x74 c:/code/devkitPro/libnds/lib\libnds9.a(videoGL.o)
 .text.vramBlock_terminate
                0x00000000       0x28 c:/code/devkitPro/libnds/lib\libnds9.a(videoGL.o)
 .text.vramBlock_Deconstruct
                0x00000000       0x14 c:/code/devkitPro/libnds/lib\libnds9.a(videoGL.o)
 .text.vramBlock__allocateBlock
                0x00000000      0x170 c:/code/devkitPro/libnds/lib\libnds9.a(videoGL.o)
 .text.vramBlock_allocateSpecial.part.1
                0x00000000       0x64 c:/code/devkitPro/libnds/lib\libnds9.a(videoGL.o)
 .text.vramBlock__deallocateBlock
                0x00000000       0x14 c:/code/devkitPro/libnds/lib\libnds9.a(videoGL.o)
 .text.vramBlock_examineSpecial
                0x00000000      0x244 c:/code/devkitPro/libnds/lib\libnds9.a(videoGL.o)
 .text.vramBlock_allocateSpecial
                0x00000000       0x14 c:/code/devkitPro/libnds/lib\libnds9.a(videoGL.o)
 .text.vramBlock_allocateBlock
                0x00000000       0x34 c:/code/devkitPro/libnds/lib\libnds9.a(videoGL.o)
 .text.vramBlock_deallocateBlock
                0x00000000       0x48 c:/code/devkitPro/libnds/lib\libnds9.a(videoGL.o)
 .text.vramBlock_deallocateAll
                0x00000000       0x10 c:/code/devkitPro/libnds/lib\libnds9.a(videoGL.o)
 .text.vramBlock_getAddr
                0x00000000       0x14 c:/code/devkitPro/libnds/lib\libnds9.a(videoGL.o)
 .text.vramBlock_getSize
                0x00000000       0x14 c:/code/devkitPro/libnds/lib\libnds9.a(videoGL.o)
 .text.glResetTextures
                0x00000000       0x98 c:/code/devkitPro/libnds/lib\libnds9.a(videoGL.o)
 .text.removePaletteFromTexture
                0x00000000       0x6c c:/code/devkitPro/libnds/lib\libnds9.a(videoGL.o)
 .text.glGenTextures
                0x00000000       0x84 c:/code/devkitPro/libnds/lib\libnds9.a(videoGL.o)
 .text.glDeleteTextures
                0x00000000       0xd4 c:/code/devkitPro/libnds/lib\libnds9.a(videoGL.o)
 .text.vramGetBank
                0x00000000       0xc0 c:/code/devkitPro/libnds/lib\libnds9.a(videoGL.o)
 .text.glLockVRAMBank
                0x00000000       0xd4 c:/code/devkitPro/libnds/lib\libnds9.a(videoGL.o)
 .text.glUnlockVRAMBank
                0x00000000       0xb4 c:/code/devkitPro/libnds/lib\libnds9.a(videoGL.o)
 .text.glBindTexture
                0x00000000       0x60 c:/code/devkitPro/libnds/lib\libnds9.a(videoGL.o)
 .text.glColorTableEXT
                0x00000000      0x204 c:/code/devkitPro/libnds/lib\libnds9.a(videoGL.o)
 .text.glColorSubTableEXT
                0x00000000       0x50 c:/code/devkitPro/libnds/lib\libnds9.a(videoGL.o)
 .text.glGetColorTableEXT
                0x00000000       0x3c c:/code/devkitPro/libnds/lib\libnds9.a(videoGL.o)
 .text.glAssignColorTable
                0x00000000       0x74 c:/code/devkitPro/libnds/lib\libnds9.a(videoGL.o)
 .text.glTexParameter
                0x00000000       0x38 c:/code/devkitPro/libnds/lib\libnds9.a(videoGL.o)
 .text.glGetTexturePointer
                0x00000000       0x20 c:/code/devkitPro/libnds/lib\libnds9.a(videoGL.o)
 .text.glGetTexParameter
                0x00000000       0x20 c:/code/devkitPro/libnds/lib\libnds9.a(videoGL.o)
 .text.glGetColorTableParameterEXT
                0x00000000       0x38 c:/code/devkitPro/libnds/lib\libnds9.a(videoGL.o)
 .text.glTexImage2D
                0x00000000      0x3c8 c:/code/devkitPro/libnds/lib\libnds9.a(videoGL.o)
 .rodata.glTexImage2D
                0x00000000       0x24 c:/code/devkitPro/libnds/lib\libnds9.a(videoGL.o)
 .rodata        0x00000000       0x24 c:/code/devkitPro/libnds/lib\libnds9.a(videoGL.o)
 .bss.diffuse_ambient.6441
                0x00000000        0x4 c:/code/devkitPro/libnds/lib\libnds9.a(videoGL.o)
 .bss.specular_emission.6442
                0x00000000        0x4 c:/code/devkitPro/libnds/lib\libnds9.a(videoGL.o)
 .text          0x00000000        0x0 c:/code/devkitPro/libnds/lib\libnds9.a(sprite.o)
 .data          0x00000000        0x0 c:/code/devkitPro/libnds/lib\libnds9.a(sprite.o)
 .bss           0x00000000        0x0 c:/code/devkitPro/libnds/lib\libnds9.a(sprite.o)
 .text.oamDisable
                0x00000000       0x2c c:/code/devkitPro/libnds/lib\libnds9.a(sprite.o)
 .text.oamEnable
                0x00000000       0x20 c:/code/devkitPro/libnds/lib\libnds9.a(sprite.o)
 .text.oamGetGfxPtr
                0x00000000       0x38 c:/code/devkitPro/libnds/lib\libnds9.a(sprite.o)
 .text.oamClear
                0x00000000       0x28 c:/code/devkitPro/libnds/lib\libnds9.a(sprite.o)
 .text.oamUpdate
                0x00000000       0x60 c:/code/devkitPro/libnds/lib\libnds9.a(sprite.o)
 .text          0x00000000        0x0 c:/code/devkitPro/libnds/lib\libnds9.a(sd.twl.o)
 .data          0x00000000        0x0 c:/code/devkitPro/libnds/lib\libnds9.a(sd.twl.o)
 .bss           0x00000000        0x0 c:/code/devkitPro/libnds/lib\libnds9.a(sd.twl.o)
 .text          0x00000000        0x0 c:/code/devkitPro/libnds/lib\libnds9.a(dldi.o)
 .data          0x00000000        0x0 c:/code/devkitPro/libnds/lib\libnds9.a(dldi.o)
 .bss           0x00000000        0x0 c:/code/devkitPro/libnds/lib\libnds9.a(dldi.o)
 .text.dldiIsValid
                0x00000000       0x40 c:/code/devkitPro/libnds/lib\libnds9.a(dldi.o)
 .text.dldiFixDriverAddresses
                0x00000000       0xd8 c:/code/devkitPro/libnds/lib\libnds9.a(dldi.o)
 .text.dldiLoadFromFile
                0x00000000       0xe8 c:/code/devkitPro/libnds/lib\libnds9.a(dldi.o)
 .text.dldiFree
                0x00000000        0xc c:/code/devkitPro/libnds/lib\libnds9.a(dldi.o)
 .data.io_dldi_data
                0x00000000        0x4 c:/code/devkitPro/libnds/lib\libnds9.a(dldi.o)
 .rodata.DLDI_MAGIC_NUMBER
                0x00000000        0x4 c:/code/devkitPro/libnds/lib\libnds9.a(dldi.o)
 .rodata.DLDI_MAGIC_STRING_BACKWARDS
                0x00000000        0x8 c:/code/devkitPro/libnds/lib\libnds9.a(dldi.o)
 .text          0x00000000        0x0 c:/code/devkitPro/libnds/lib\libnds9.a(initSystem.o)
 .data          0x00000000        0x0 c:/code/devkitPro/libnds/lib\libnds9.a(initSystem.o)
 .bss           0x00000000        0x0 c:/code/devkitPro/libnds/lib\libnds9.a(initSystem.o)
 .text          0x00000000        0x0 c:/code/devkitPro/libnds/lib\libnds9.a(timeSupport.o)
 .data          0x00000000        0x0 c:/code/devkitPro/libnds/lib\libnds9.a(timeSupport.o)
 .bss           0x00000000        0x0 c:/code/devkitPro/libnds/lib\libnds9.a(timeSupport.o)
 .text          0x00000000        0x0 c:/code/devkitPro/libnds/lib\libnds9.a(securearea.o)
 .data          0x00000000        0x0 c:/code/devkitPro/libnds/lib\libnds9.a(securearea.o)
 .bss           0x00000000        0x0 c:/code/devkitPro/libnds/lib\libnds9.a(securearea.o)
 .text          0x00000000        0x0 c:/code/devkitPro/libnds/lib\libnds9.a(interrupts.o)
 .data          0x00000000        0x0 c:/code/devkitPro/libnds/lib\libnds9.a(interrupts.o)
 .bss           0x00000000        0x0 c:/code/devkitPro/libnds/lib\libnds9.a(interrupts.o)
 .text.irqInitHandler
                0x00000000       0x28 c:/code/devkitPro/libnds/lib\libnds9.a(interrupts.o)
 .text.irqClear
                0x00000000       0x38 c:/code/devkitPro/libnds/lib\libnds9.a(interrupts.o)
 .text          0x00000000        0x0 c:/code/devkitPro/libnds/lib\libnds9.a(libnds_exit.arm.o)
 .data          0x00000000        0x0 c:/code/devkitPro/libnds/lib\libnds9.a(libnds_exit.arm.o)
 .bss           0x00000000        0x0 c:/code/devkitPro/libnds/lib\libnds9.a(libnds_exit.arm.o)
 .text          0x00000000        0x0 c:/code/devkitPro/libnds/lib\libnds9.a(card.o)
 .data          0x00000000        0x0 c:/code/devkitPro/libnds/lib\libnds9.a(card.o)
 .bss           0x00000000        0x0 c:/code/devkitPro/libnds/lib\libnds9.a(card.o)
 .text.cardWriteCommand
                0x00000000       0x24 c:/code/devkitPro/libnds/lib\libnds9.a(card.o)
 .text.cardStartTransfer
                0x00000000       0x5c c:/code/devkitPro/libnds/lib\libnds9.a(card.o)
 .text.cardWriteAndRead
                0x00000000       0x44 c:/code/devkitPro/libnds/lib\libnds9.a(card.o)
 .text.cardReadID
                0x00000000       0x5c c:/code/devkitPro/libnds/lib\libnds9.a(card.o)
 .text.cardReset
                0x00000000       0x6c c:/code/devkitPro/libnds/lib\libnds9.a(card.o)
 .text.cardReadHeader
                0x00000000       0x68 c:/code/devkitPro/libnds/lib\libnds9.a(card.o)
 .text          0x00000000        0x0 c:/code/devkitPro/libnds/lib\libnds9.a(fifosystem.o)
 .data          0x00000000        0x0 c:/code/devkitPro/libnds/lib\libnds9.a(fifosystem.o)
 .bss           0x00000000        0x0 c:/code/devkitPro/libnds/lib\libnds9.a(fifosystem.o)
 .text.fifoSendAddress
                0x00000000       0x38 c:/code/devkitPro/libnds/lib\libnds9.a(fifosystem.o)
 .text.fifoGetAddress
                0x00000000       0x70 c:/code/devkitPro/libnds/lib\libnds9.a(fifosystem.o)
 .text.fifoSetAddressHandler
                0x00000000       0x74 c:/code/devkitPro/libnds/lib\libnds9.a(fifosystem.o)
 .text.fifoCheckAddress
                0x00000000       0x24 c:/code/devkitPro/libnds/lib\libnds9.a(fifosystem.o)
 .text.fifoCheckDatamsg
                0x00000000       0x24 c:/code/devkitPro/libnds/lib\libnds9.a(fifosystem.o)
 .text.fifoCheckDatamsgLength
                0x00000000       0x30 c:/code/devkitPro/libnds/lib\libnds9.a(fifosystem.o)
 .text          0x00000000        0x0 c:/code/devkitPro/libnds/lib\libnds9.a(dcache.o)
 .data          0x00000000        0x0 c:/code/devkitPro/libnds/lib\libnds9.a(dcache.o)
 .bss           0x00000000        0x0 c:/code/devkitPro/libnds/lib\libnds9.a(dcache.o)
 .text.DC_FlushAll
                0x00000000       0x2c c:/code/devkitPro/libnds/lib\libnds9.a(dcache.o)
 .text.DC_InvalidateAll
                0x00000000        0xc c:/code/devkitPro/libnds/lib\libnds9.a(dcache.o)
 .data          0x00000000        0x0 c:/code/devkitPro/libnds/lib\libnds9.a(dldi_stub.o)
 .bss           0x00000000        0x0 c:/code/devkitPro/libnds/lib\libnds9.a(dldi_stub.o)
 .text          0x00000000        0x0 c:/code/devkitPro/libnds/lib\libnds9.a(mpu_setup.o)
 .bss           0x00000000        0x0 c:/code/devkitPro/libnds/lib\libnds9.a(mpu_setup.o)
 .text.memCached
                0x00000000       0x20 c:/code/devkitPro/libnds/lib\libnds9.a(mpu_setup.o)
 .text          0x00000000        0x0 c:/code/devkitPro/libnds/lib\libnds9.a(IntrWait.o)
 .data          0x00000000        0x0 c:/code/devkitPro/libnds/lib\libnds9.a(IntrWait.o)
 .bss           0x00000000        0x0 c:/code/devkitPro/libnds/lib\libnds9.a(IntrWait.o)
 .text          0x00000000        0x0 c:/code/devkitPro/libnds/lib\libnds9.a(cpu_clock.o)
 .data          0x00000000        0x0 c:/code/devkitPro/libnds/lib\libnds9.a(cpu_clock.o)
 .bss           0x00000000        0x0 c:/code/devkitPro/libnds/lib\libnds9.a(cpu_clock.o)
 .itcm          0x00000000        0x0 c:/code/devkitPro/libnds/lib\libnds9.a(cpu_clock.o)
 .text          0x00000000        0x0 c:/code/devkitPro/libnds/lib\libnds9.a(interruptDispatcher.o)
 .data          0x00000000        0x0 c:/code/devkitPro/libnds/lib\libnds9.a(interruptDispatcher.o)
 .bss           0x00000000        0x0 c:/code/devkitPro/libnds/lib\libnds9.a(interruptDispatcher.o)
 .text          0x00000000       0xa4 c:/code/devkitPro/libnds/lib\libnds9.a(debugprint.o)
 .data          0x00000000        0x0 c:/code/devkitPro/libnds/lib\libnds9.a(debugprint.o)
 .bss           0x00000000        0x0 c:/code/devkitPro/libnds/lib\libnds9.a(debugprint.o)
 .debug_line    0x00000000       0x9e c:/code/devkitPro/libnds/lib\libnds9.a(debugprint.o)
 .debug_info    0x00000000       0xbe c:/code/devkitPro/libnds/lib\libnds9.a(debugprint.o)
 .debug_abbrev  0x00000000       0x14 c:/code/devkitPro/libnds/lib\libnds9.a(debugprint.o)
 .debug_aranges
                0x00000000       0x20 c:/code/devkitPro/libnds/lib\libnds9.a(debugprint.o)
 .ARM.attributes
                0x00000000       0x1b c:/code/devkitPro/libnds/lib\libnds9.a(debugprint.o)
 .text          0x00000000        0x0 c:/code/devkitPro/libnds/lib\libnds9.a(swiSoftReset.o)
 .data          0x00000000        0x0 c:/code/devkitPro/libnds/lib\libnds9.a(swiSoftReset.o)
 .bss           0x00000000        0x0 c:/code/devkitPro/libnds/lib\libnds9.a(swiSoftReset.o)
 .text          0x00000000        0x0 c:/code/devkitPro/libnds/lib\libnds9.a(biosCalls.o)
 .data          0x00000000        0x0 c:/code/devkitPro/libnds/lib\libnds9.a(biosCalls.o)
 .bss           0x00000000        0x0 c:/code/devkitPro/libnds/lib\libnds9.a(biosCalls.o)
 .text.swiSleep
                0x00000000        0x4 c:/code/devkitPro/libnds/lib\libnds9.a(biosCalls.o)
 .text.swiChangeSoundBias
                0x00000000        0x4 c:/code/devkitPro/libnds/lib\libnds9.a(biosCalls.o)
 .text.swiDivide
                0x00000000        0x4 c:/code/devkitPro/libnds/lib\libnds9.a(biosCalls.o)
 .text.swiRemainder
                0x00000000        0x8 c:/code/devkitPro/libnds/lib\libnds9.a(biosCalls.o)
 .text.swiDivMod
                0x00000000        0xc c:/code/devkitPro/libnds/lib\libnds9.a(biosCalls.o)
 .text.swiCopy  0x00000000        0x4 c:/code/devkitPro/libnds/lib\libnds9.a(biosCalls.o)
 .text.swiFastCopy
                0x00000000        0x4 c:/code/devkitPro/libnds/lib\libnds9.a(biosCalls.o)
 .text.swiSqrt  0x00000000        0x4 c:/code/devkitPro/libnds/lib\libnds9.a(biosCalls.o)
 .text.swiCRC16
                0x00000000        0x4 c:/code/devkitPro/libnds/lib\libnds9.a(biosCalls.o)
 .text.swiIsDebugger
                0x00000000        0x4 c:/code/devkitPro/libnds/lib\libnds9.a(biosCalls.o)
 .text.swiUnpackBits
                0x00000000        0x4 c:/code/devkitPro/libnds/lib\libnds9.a(biosCalls.o)
 .text.swiDecompressLZSSWram
                0x00000000        0x4 c:/code/devkitPro/libnds/lib\libnds9.a(biosCalls.o)
 .text.swiDecompressLZSSVramNTR
                0x00000000        0x4 c:/code/devkitPro/libnds/lib\libnds9.a(biosCalls.o)
 .text.swiDecompressLZSSVramTWL
                0x00000000        0x4 c:/code/devkitPro/libnds/lib\libnds9.a(biosCalls.o)
 .text.swiDecompressHuffman
                0x00000000        0x4 c:/code/devkitPro/libnds/lib\libnds9.a(biosCalls.o)
 .text.swiDecompressRLEWram
                0x00000000        0x4 c:/code/devkitPro/libnds/lib\libnds9.a(biosCalls.o)
 .text.swiDecompressRLEVram
                0x00000000        0x4 c:/code/devkitPro/libnds/lib\libnds9.a(biosCalls.o)
 .text.swiWaitForIRQ
                0x00000000        0x4 c:/code/devkitPro/libnds/lib\libnds9.a(biosCalls.o)
 .text.swiDecodeDelta8
                0x00000000        0x4 c:/code/devkitPro/libnds/lib\libnds9.a(biosCalls.o)
 .text.swiDecodeDelta16
                0x00000000        0x4 c:/code/devkitPro/libnds/lib\libnds9.a(biosCalls.o)
 .text.swiSetHaltCR
                0x00000000        0x4 c:/code/devkitPro/libnds/lib\libnds9.a(biosCalls.o)
 .text          0x00000000        0x0 c:/code/devkitPro/libnds/lib\libnds9.a(default_font.bin.o)
 .data          0x00000000        0x0 c:/code/devkitPro/libnds/lib\libnds9.a(default_font.bin.o)
 .bss           0x00000000        0x0 c:/code/devkitPro/libnds/lib\libnds9.a(default_font.bin.o)
 .text          0x00000000        0x0 c:/code/devkitPro/libnds/lib\libnds9.a(dynamicArray.o)
 .data          0x00000000        0x0 c:/code/devkitPro/libnds/lib\libnds9.a(dynamicArray.o)
 .bss           0x00000000        0x0 c:/code/devkitPro/libnds/lib\libnds9.a(dynamicArray.o)
 .text.DynamicArrayDelete
                0x00000000       0x14 c:/code/devkitPro/libnds/lib\libnds9.a(dynamicArray.o)
 .text.DynamicArrayGet
                0x00000000       0x18 c:/code/devkitPro/libnds/lib\libnds9.a(dynamicArray.o)
 .text          0x00000000        0x0 c:/code/devkitPro/libnds/lib\libnds9.a(sprite_alloc.o)
 .data          0x00000000        0x0 c:/code/devkitPro/libnds/lib\libnds9.a(sprite_alloc.o)
 .bss           0x00000000        0x0 c:/code/devkitPro/libnds/lib\libnds9.a(sprite_alloc.o)
 .text.getAllocHeader
                0x00000000       0x2c c:/code/devkitPro/libnds/lib\libnds9.a(sprite_alloc.o)
 .text.oamAllocateGfx
                0x00000000      0x22c c:/code/devkitPro/libnds/lib\libnds9.a(sprite_alloc.o)
 .text.oamFreeGfx
                0x00000000      0x18c c:/code/devkitPro/libnds/lib\libnds9.a(sprite_alloc.o)
 .text.oamCountFragments
                0x00000000       0x54 c:/code/devkitPro/libnds/lib\libnds9.a(sprite_alloc.o)
 .text          0x00000000        0x0 c:/code/devkitPro/libnds/lib\libnds9.a(system.o)
 .data          0x00000000        0x0 c:/code/devkitPro/libnds/lib\libnds9.a(system.o)
 .bss           0x00000000        0x0 c:/code/devkitPro/libnds/lib\libnds9.a(system.o)
 .text.setSDcallback
                0x00000000        0xc c:/code/devkitPro/libnds/lib\libnds9.a(system.o)
 .text.systemSleep
                0x00000000       0x18 c:/code/devkitPro/libnds/lib\libnds9.a(system.o)
 .text.powerOff
                0x00000000       0x28 c:/code/devkitPro/libnds/lib\libnds9.a(system.o)
 .text.ledBlink
                0x00000000       0x10 c:/code/devkitPro/libnds/lib\libnds9.a(system.o)
 .text.getBatteryLevel
                0x00000000       0x20 c:/code/devkitPro/libnds/lib\libnds9.a(system.o)
 .data          0x00000000        0x0 c:/code/devkitpro/devkitarm/bin/../lib/gcc/arm-none-eabi/6.3.0/thumb\libgcc.a(_udivsi3.o)
 .bss           0x00000000        0x0 c:/code/devkitpro/devkitarm/bin/../lib/gcc/arm-none-eabi/6.3.0/thumb\libgcc.a(_udivsi3.o)
 .data          0x00000000        0x0 c:/code/devkitpro/devkitarm/bin/../lib/gcc/arm-none-eabi/6.3.0/thumb\libgcc.a(_divsi3.o)
 .bss           0x00000000        0x0 c:/code/devkitpro/devkitarm/bin/../lib/gcc/arm-none-eabi/6.3.0/thumb\libgcc.a(_divsi3.o)
 .data          0x00000000        0x0 c:/code/devkitpro/devkitarm/bin/../lib/gcc/arm-none-eabi/6.3.0/thumb\libgcc.a(_dvmd_tls.o)
 .bss           0x00000000        0x0 c:/code/devkitpro/devkitarm/bin/../lib/gcc/arm-none-eabi/6.3.0/thumb\libgcc.a(_dvmd_tls.o)
 .data          0x00000000        0x0 c:/code/devkitpro/devkitarm/bin/../lib/gcc/arm-none-eabi/6.3.0/thumb\libgcc.a(_aeabi_ldivmod.o)
 .bss           0x00000000        0x0 c:/code/devkitpro/devkitarm/bin/../lib/gcc/arm-none-eabi/6.3.0/thumb\libgcc.a(_aeabi_ldivmod.o)
 .text          0x00000000        0x0 c:/code/devkitpro/devkitarm/bin/../lib/gcc/arm-none-eabi/6.3.0/thumb\libgcc.a(_muldi3.o)
 .data          0x00000000        0x0 c:/code/devkitpro/devkitarm/bin/../lib/gcc/arm-none-eabi/6.3.0/thumb\libgcc.a(_muldi3.o)
 .bss           0x00000000        0x0 c:/code/devkitpro/devkitarm/bin/../lib/gcc/arm-none-eabi/6.3.0/thumb\libgcc.a(_muldi3.o)
 .text          0x00000000        0x0 c:/code/devkitpro/devkitarm/bin/../lib/gcc/arm-none-eabi/6.3.0/thumb\libgcc.a(_udivmoddi4.o)
 .data          0x00000000        0x0 c:/code/devkitpro/devkitarm/bin/../lib/gcc/arm-none-eabi/6.3.0/thumb\libgcc.a(_udivmoddi4.o)
 .bss           0x00000000        0x0 c:/code/devkitpro/devkitarm/bin/../lib/gcc/arm-none-eabi/6.3.0/thumb\libgcc.a(_udivmoddi4.o)
 .data          0x00000000        0x0 c:/code/devkitpro/devkitarm/bin/../lib/gcc/arm-none-eabi/6.3.0/thumb\libgcc.a(_clzdi2.o)
 .bss           0x00000000        0x0 c:/code/devkitpro/devkitarm/bin/../lib/gcc/arm-none-eabi/6.3.0/thumb\libgcc.a(_clzdi2.o)
 .data          0x00000000        0x0 c:/code/devkitpro/devkitarm/bin/../lib/gcc/arm-none-eabi/6.3.0/thumb\libgcc.a(_clzsi2.o)
 .bss           0x00000000        0x0 c:/code/devkitpro/devkitarm/bin/../lib/gcc/arm-none-eabi/6.3.0/thumb\libgcc.a(_clzsi2.o)
 .text          0x00000000        0x0 c:/code/devkitpro/devkitarm/bin/../lib/gcc/arm-none-eabi/6.3.0/../../../../arm-none-eabi/lib/thumb\libg.a(lib_a-bsearch.o)
 .data          0x00000000        0x0 c:/code/devkitpro/devkitarm/bin/../lib/gcc/arm-none-eabi/6.3.0/../../../../arm-none-eabi/lib/thumb\libg.a(lib_a-bsearch.o)
 .bss           0x00000000        0x0 c:/code/devkitpro/devkitarm/bin/../lib/gcc/arm-none-eabi/6.3.0/../../../../arm-none-eabi/lib/thumb\libg.a(lib_a-bsearch.o)
 .text.bsearch  0x00000000       0x64 c:/code/devkitpro/devkitarm/bin/../lib/gcc/arm-none-eabi/6.3.0/../../../../arm-none-eabi/lib/thumb\libg.a(lib_a-bsearch.o)
 .comment       0x00000000       0x23 c:/code/devkitpro/devkitarm/bin/../lib/gcc/arm-none-eabi/6.3.0/../../../../arm-none-eabi/lib/thumb\libg.a(lib_a-bsearch.o)
 .ARM.attributes
                0x00000000       0x30 c:/code/devkitpro/devkitarm/bin/../lib/gcc/arm-none-eabi/6.3.0/../../../../arm-none-eabi/lib/thumb\libg.a(lib_a-bsearch.o)
 .text          0x00000000        0x0 c:/code/devkitpro/devkitarm/bin/../lib/gcc/arm-none-eabi/6.3.0/../../../../arm-none-eabi/lib/thumb\libg.a(lib_a-calloc.o)
 .data          0x00000000        0x0 c:/code/devkitpro/devkitarm/bin/../lib/gcc/arm-none-eabi/6.3.0/../../../../arm-none-eabi/lib/thumb\libg.a(lib_a-calloc.o)
 .bss           0x00000000        0x0 c:/code/devkitpro/devkitarm/bin/../lib/gcc/arm-none-eabi/6.3.0/../../../../arm-none-eabi/lib/thumb\libg.a(lib_a-calloc.o)
 .text          0x00000000        0x0 c:/code/devkitpro/devkitarm/bin/../lib/gcc/arm-none-eabi/6.3.0/../../../../arm-none-eabi/lib/thumb\libg.a(lib_a-callocr.o)
 .data          0x00000000        0x0 c:/code/devkitpro/devkitarm/bin/../lib/gcc/arm-none-eabi/6.3.0/../../../../arm-none-eabi/lib/thumb\libg.a(lib_a-callocr.o)
 .bss           0x00000000        0x0 c:/code/devkitpro/devkitarm/bin/../lib/gcc/arm-none-eabi/6.3.0/../../../../arm-none-eabi/lib/thumb\libg.a(lib_a-callocr.o)
 .text          0x00000000        0x0 c:/code/devkitpro/devkitarm/bin/../lib/gcc/arm-none-eabi/6.3.0/../../../../arm-none-eabi/lib/thumb\libg.a(lib_a-fclose.o)
 .data          0x00000000        0x0 c:/code/devkitpro/devkitarm/bin/../lib/gcc/arm-none-eabi/6.3.0/../../../../arm-none-eabi/lib/thumb\libg.a(lib_a-fclose.o)
 .bss           0x00000000        0x0 c:/code/devkitpro/devkitarm/bin/../lib/gcc/arm-none-eabi/6.3.0/../../../../arm-none-eabi/lib/thumb\libg.a(lib_a-fclose.o)
 .text          0x00000000        0x0 c:/code/devkitpro/devkitarm/bin/../lib/gcc/arm-none-eabi/6.3.0/../../../../arm-none-eabi/lib/thumb\libg.a(lib_a-fflush.o)
 .data          0x00000000        0x0 c:/code/devkitpro/devkitarm/bin/../lib/gcc/arm-none-eabi/6.3.0/../../../../arm-none-eabi/lib/thumb\libg.a(lib_a-fflush.o)
 .bss           0x00000000        0x0 c:/code/devkitpro/devkitarm/bin/../lib/gcc/arm-none-eabi/6.3.0/../../../../arm-none-eabi/lib/thumb\libg.a(lib_a-fflush.o)
 .text          0x00000000        0x0 c:/code/devkitpro/devkitarm/bin/../lib/gcc/arm-none-eabi/6.3.0/../../../../arm-none-eabi/lib/thumb\libg.a(lib_a-findfp.o)
 .data          0x00000000        0x0 c:/code/devkitpro/devkitarm/bin/../lib/gcc/arm-none-eabi/6.3.0/../../../../arm-none-eabi/lib/thumb\libg.a(lib_a-findfp.o)
 .bss           0x00000000        0x0 c:/code/devkitpro/devkitarm/bin/../lib/gcc/arm-none-eabi/6.3.0/../../../../arm-none-eabi/lib/thumb\libg.a(lib_a-findfp.o)
 .text.__fp_lock
                0x00000000       0x1c c:/code/devkitpro/devkitarm/bin/../lib/gcc/arm-none-eabi/6.3.0/../../../../arm-none-eabi/lib/thumb\libg.a(lib_a-findfp.o)
 .text.__fp_unlock
                0x00000000       0x1c c:/code/devkitpro/devkitarm/bin/../lib/gcc/arm-none-eabi/6.3.0/../../../../arm-none-eabi/lib/thumb\libg.a(lib_a-findfp.o)
 .text._cleanup
                0x00000000       0x1c c:/code/devkitpro/devkitarm/bin/../lib/gcc/arm-none-eabi/6.3.0/../../../../arm-none-eabi/lib/thumb\libg.a(lib_a-findfp.o)
 .text.__sinit_lock_acquire
                0x00000000       0x14 c:/code/devkitpro/devkitarm/bin/../lib/gcc/arm-none-eabi/6.3.0/../../../../arm-none-eabi/lib/thumb\libg.a(lib_a-findfp.o)
 .text.__sinit_lock_release
                0x00000000       0x14 c:/code/devkitpro/devkitarm/bin/../lib/gcc/arm-none-eabi/6.3.0/../../../../arm-none-eabi/lib/thumb\libg.a(lib_a-findfp.o)
 .text.__fp_lock_all
                0x00000000       0x20 c:/code/devkitpro/devkitarm/bin/../lib/gcc/arm-none-eabi/6.3.0/../../../../arm-none-eabi/lib/thumb\libg.a(lib_a-findfp.o)
 .text.__fp_unlock_all
                0x00000000       0x20 c:/code/devkitpro/devkitarm/bin/../lib/gcc/arm-none-eabi/6.3.0/../../../../arm-none-eabi/lib/thumb\libg.a(lib_a-findfp.o)
 .text          0x00000000        0x0 c:/code/devkitpro/devkitarm/bin/../lib/gcc/arm-none-eabi/6.3.0/../../../../arm-none-eabi/lib/thumb\libg.a(lib_a-fopen.o)
 .data          0x00000000        0x0 c:/code/devkitpro/devkitarm/bin/../lib/gcc/arm-none-eabi/6.3.0/../../../../arm-none-eabi/lib/thumb\libg.a(lib_a-fopen.o)
 .bss           0x00000000        0x0 c:/code/devkitpro/devkitarm/bin/../lib/gcc/arm-none-eabi/6.3.0/../../../../arm-none-eabi/lib/thumb\libg.a(lib_a-fopen.o)
 .text          0x00000000        0x0 c:/code/devkitpro/devkitarm/bin/../lib/gcc/arm-none-eabi/6.3.0/../../../../arm-none-eabi/lib/thumb\libg.a(lib_a-fread.o)
 .data          0x00000000        0x0 c:/code/devkitpro/devkitarm/bin/../lib/gcc/arm-none-eabi/6.3.0/../../../../arm-none-eabi/lib/thumb\libg.a(lib_a-fread.o)
 .bss           0x00000000        0x0 c:/code/devkitpro/devkitarm/bin/../lib/gcc/arm-none-eabi/6.3.0/../../../../arm-none-eabi/lib/thumb\libg.a(lib_a-fread.o)
 .text          0x00000000        0x0 c:/code/devkitpro/devkitarm/bin/../lib/gcc/arm-none-eabi/6.3.0/../../../../arm-none-eabi/lib/thumb\libg.a(lib_a-freer.o)
 .data          0x00000000        0x0 c:/code/devkitpro/devkitarm/bin/../lib/gcc/arm-none-eabi/6.3.0/../../../../arm-none-eabi/lib/thumb\libg.a(lib_a-freer.o)
 .bss           0x00000000        0x0 c:/code/devkitpro/devkitarm/bin/../lib/gcc/arm-none-eabi/6.3.0/../../../../arm-none-eabi/lib/thumb\libg.a(lib_a-freer.o)
 .text          0x00000000        0x0 c:/code/devkitpro/devkitarm/bin/../lib/gcc/arm-none-eabi/6.3.0/../../../../arm-none-eabi/lib/thumb\libg.a(lib_a-fseek.o)
 .data          0x00000000        0x0 c:/code/devkitpro/devkitarm/bin/../lib/gcc/arm-none-eabi/6.3.0/../../../../arm-none-eabi/lib/thumb\libg.a(lib_a-fseek.o)
 .bss           0x00000000        0x0 c:/code/devkitpro/devkitarm/bin/../lib/gcc/arm-none-eabi/6.3.0/../../../../arm-none-eabi/lib/thumb\libg.a(lib_a-fseek.o)
 .text          0x00000000        0x0 c:/code/devkitpro/devkitarm/bin/../lib/gcc/arm-none-eabi/6.3.0/../../../../arm-none-eabi/lib/thumb\libg.a(lib_a-fseeko.o)
 .data          0x00000000        0x0 c:/code/devkitpro/devkitarm/bin/../lib/gcc/arm-none-eabi/6.3.0/../../../../arm-none-eabi/lib/thumb\libg.a(lib_a-fseeko.o)
 .bss           0x00000000        0x0 c:/code/devkitpro/devkitarm/bin/../lib/gcc/arm-none-eabi/6.3.0/../../../../arm-none-eabi/lib/thumb\libg.a(lib_a-fseeko.o)
 .text.fseeko   0x00000000       0x24 c:/code/devkitpro/devkitarm/bin/../lib/gcc/arm-none-eabi/6.3.0/../../../../arm-none-eabi/lib/thumb\libg.a(lib_a-fseeko.o)
 .text          0x00000000        0x0 c:/code/devkitpro/devkitarm/bin/../lib/gcc/arm-none-eabi/6.3.0/../../../../arm-none-eabi/lib/thumb\libg.a(lib_a-ftell.o)
 .data          0x00000000        0x0 c:/code/devkitpro/devkitarm/bin/../lib/gcc/arm-none-eabi/6.3.0/../../../../arm-none-eabi/lib/thumb\libg.a(lib_a-ftell.o)
 .bss           0x00000000        0x0 c:/code/devkitpro/devkitarm/bin/../lib/gcc/arm-none-eabi/6.3.0/../../../../arm-none-eabi/lib/thumb\libg.a(lib_a-ftell.o)
 .text._ftell_r
                0x00000000       0x1c c:/code/devkitpro/devkitarm/bin/../lib/gcc/arm-none-eabi/6.3.0/../../../../arm-none-eabi/lib/thumb\libg.a(lib_a-ftell.o)
 .text          0x00000000        0x0 c:/code/devkitpro/devkitarm/bin/../lib/gcc/arm-none-eabi/6.3.0/../../../../arm-none-eabi/lib/thumb\libg.a(lib_a-ftello.o)
 .data          0x00000000        0x0 c:/code/devkitpro/devkitarm/bin/../lib/gcc/arm-none-eabi/6.3.0/../../../../arm-none-eabi/lib/thumb\libg.a(lib_a-ftello.o)
 .bss           0x00000000        0x0 c:/code/devkitpro/devkitarm/bin/../lib/gcc/arm-none-eabi/6.3.0/../../../../arm-none-eabi/lib/thumb\libg.a(lib_a-ftello.o)
 .text.ftello   0x00000000       0x14 c:/code/devkitpro/devkitarm/bin/../lib/gcc/arm-none-eabi/6.3.0/../../../../arm-none-eabi/lib/thumb\libg.a(lib_a-ftello.o)
 .text          0x00000000        0x0 c:/code/devkitpro/devkitarm/bin/../lib/gcc/arm-none-eabi/6.3.0/../../../../arm-none-eabi/lib/thumb\libg.a(lib_a-fwalk.o)
 .data          0x00000000        0x0 c:/code/devkitpro/devkitarm/bin/../lib/gcc/arm-none-eabi/6.3.0/../../../../arm-none-eabi/lib/thumb\libg.a(lib_a-fwalk.o)
 .bss           0x00000000        0x0 c:/code/devkitpro/devkitarm/bin/../lib/gcc/arm-none-eabi/6.3.0/../../../../arm-none-eabi/lib/thumb\libg.a(lib_a-fwalk.o)
 .text          0x00000000        0x0 c:/code/devkitpro/devkitarm/bin/../lib/gcc/arm-none-eabi/6.3.0/../../../../arm-none-eabi/lib/thumb\libg.a(lib_a-impure.o)
 .data          0x00000000        0x0 c:/code/devkitpro/devkitarm/bin/../lib/gcc/arm-none-eabi/6.3.0/../../../../arm-none-eabi/lib/thumb\libg.a(lib_a-impure.o)
 .bss           0x00000000        0x0 c:/code/devkitpro/devkitarm/bin/../lib/gcc/arm-none-eabi/6.3.0/../../../../arm-none-eabi/lib/thumb\libg.a(lib_a-impure.o)
 .text          0x00000000        0x0 c:/code/devkitpro/devkitarm/bin/../lib/gcc/arm-none-eabi/6.3.0/../../../../arm-none-eabi/lib/thumb\libg.a(lib_a-init.o)
 .data          0x00000000        0x0 c:/code/devkitpro/devkitarm/bin/../lib/gcc/arm-none-eabi/6.3.0/../../../../arm-none-eabi/lib/thumb\libg.a(lib_a-init.o)
 .bss           0x00000000        0x0 c:/code/devkitpro/devkitarm/bin/../lib/gcc/arm-none-eabi/6.3.0/../../../../arm-none-eabi/lib/thumb\libg.a(lib_a-init.o)
 .text          0x00000000        0x0 c:/code/devkitpro/devkitarm/bin/../lib/gcc/arm-none-eabi/6.3.0/../../../../arm-none-eabi/lib/thumb\libg.a(lib_a-iprintf.o)
 .data          0x00000000        0x0 c:/code/devkitpro/devkitarm/bin/../lib/gcc/arm-none-eabi/6.3.0/../../../../arm-none-eabi/lib/thumb\libg.a(lib_a-iprintf.o)
 .bss           0x00000000        0x0 c:/code/devkitpro/devkitarm/bin/../lib/gcc/arm-none-eabi/6.3.0/../../../../arm-none-eabi/lib/thumb\libg.a(lib_a-iprintf.o)
 .text._iprintf_r
                0x00000000       0x1c c:/code/devkitpro/devkitarm/bin/../lib/gcc/arm-none-eabi/6.3.0/../../../../arm-none-eabi/lib/thumb\libg.a(lib_a-iprintf.o)
 .text          0x00000000        0x0 c:/code/devkitpro/devkitarm/bin/../lib/gcc/arm-none-eabi/6.3.0/../../../../arm-none-eabi/lib/thumb\libg.a(lib_a-lcltime_r.o)
 .data          0x00000000        0x0 c:/code/devkitpro/devkitarm/bin/../lib/gcc/arm-none-eabi/6.3.0/../../../../arm-none-eabi/lib/thumb\libg.a(lib_a-lcltime_r.o)
 .bss           0x00000000        0x0 c:/code/devkitpro/devkitarm/bin/../lib/gcc/arm-none-eabi/6.3.0/../../../../arm-none-eabi/lib/thumb\libg.a(lib_a-lcltime_r.o)
 .text          0x00000000        0x0 c:/code/devkitpro/devkitarm/bin/../lib/gcc/arm-none-eabi/6.3.0/../../../../arm-none-eabi/lib/thumb\libg.a(lib_a-locale.o)
 .data          0x00000000        0x0 c:/code/devkitpro/devkitarm/bin/../lib/gcc/arm-none-eabi/6.3.0/../../../../arm-none-eabi/lib/thumb\libg.a(lib_a-locale.o)
 .bss           0x00000000        0x0 c:/code/devkitpro/devkitarm/bin/../lib/gcc/arm-none-eabi/6.3.0/../../../../arm-none-eabi/lib/thumb\libg.a(lib_a-locale.o)
 .text.currentlocale
                0x00000000       0x64 c:/code/devkitpro/devkitarm/bin/../lib/gcc/arm-none-eabi/6.3.0/../../../../arm-none-eabi/lib/thumb\libg.a(lib_a-locale.o)
 .text.__loadlocale
                0x00000000      0x5e4 c:/code/devkitpro/devkitarm/bin/../lib/gcc/arm-none-eabi/6.3.0/../../../../arm-none-eabi/lib/thumb\libg.a(lib_a-locale.o)
 .rodata.__loadlocale
                0x00000000       0xd4 c:/code/devkitpro/devkitarm/bin/../lib/gcc/arm-none-eabi/6.3.0/../../../../arm-none-eabi/lib/thumb\libg.a(lib_a-locale.o)
 .text.__get_locale_env
                0x00000000       0x58 c:/code/devkitpro/devkitarm/bin/../lib/gcc/arm-none-eabi/6.3.0/../../../../arm-none-eabi/lib/thumb\libg.a(lib_a-locale.o)
 .text._setlocale_r
                0x00000000      0x224 c:/code/devkitpro/devkitarm/bin/../lib/gcc/arm-none-eabi/6.3.0/../../../../arm-none-eabi/lib/thumb\libg.a(lib_a-locale.o)
 .text.setlocale
                0x00000000       0x18 c:/code/devkitpro/devkitarm/bin/../lib/gcc/arm-none-eabi/6.3.0/../../../../arm-none-eabi/lib/thumb\libg.a(lib_a-locale.o)
 .bss._PathLocale
                0x00000000        0x4 c:/code/devkitpro/devkitarm/bin/../lib/gcc/arm-none-eabi/6.3.0/../../../../arm-none-eabi/lib/thumb\libg.a(lib_a-locale.o)
 .bss.global_locale_string
                0x00000000       0xe7 c:/code/devkitpro/devkitarm/bin/../lib/gcc/arm-none-eabi/6.3.0/../../../../arm-none-eabi/lib/thumb\libg.a(lib_a-locale.o)
 .bss.new_categories.5373
                0x00000000       0xe0 c:/code/devkitpro/devkitarm/bin/../lib/gcc/arm-none-eabi/6.3.0/../../../../arm-none-eabi/lib/thumb\libg.a(lib_a-locale.o)
 .bss.saved_categories.5374
                0x00000000       0xe0 c:/code/devkitpro/devkitarm/bin/../lib/gcc/arm-none-eabi/6.3.0/../../../../arm-none-eabi/lib/thumb\libg.a(lib_a-locale.o)
 .data.__default_locale
                0x00000000       0x20 c:/code/devkitpro/devkitarm/bin/../lib/gcc/arm-none-eabi/6.3.0/../../../../arm-none-eabi/lib/thumb\libg.a(lib_a-locale.o)
 .rodata.__C_locale
                0x00000000      0x16c c:/code/devkitpro/devkitarm/bin/../lib/gcc/arm-none-eabi/6.3.0/../../../../arm-none-eabi/lib/thumb\libg.a(lib_a-locale.o)
 .rodata.__get_locale_env.str1.4
                0x00000000        0xd c:/code/devkitpro/devkitarm/bin/../lib/gcc/arm-none-eabi/6.3.0/../../../../arm-none-eabi/lib/thumb\libg.a(lib_a-locale.o)
 .rodata.__loadlocale.str1.4
                0x00000000       0xcf c:/code/devkitpro/devkitarm/bin/../lib/gcc/arm-none-eabi/6.3.0/../../../../arm-none-eabi/lib/thumb\libg.a(lib_a-locale.o)
 .rodata.categories
                0x00000000       0x1c c:/code/devkitpro/devkitarm/bin/../lib/gcc/arm-none-eabi/6.3.0/../../../../arm-none-eabi/lib/thumb\libg.a(lib_a-locale.o)
 .rodata.currentlocale.str1.4
                0x00000000        0x2 c:/code/devkitpro/devkitarm/bin/../lib/gcc/arm-none-eabi/6.3.0/../../../../arm-none-eabi/lib/thumb\libg.a(lib_a-locale.o)
 .text          0x00000000        0x0 c:/code/devkitpro/devkitarm/bin/../lib/gcc/arm-none-eabi/6.3.0/../../../../arm-none-eabi/lib/thumb\libg.a(lib_a-makebuf.o)
 .data          0x00000000        0x0 c:/code/devkitpro/devkitarm/bin/../lib/gcc/arm-none-eabi/6.3.0/../../../../arm-none-eabi/lib/thumb\libg.a(lib_a-makebuf.o)
 .bss           0x00000000        0x0 c:/code/devkitpro/devkitarm/bin/../lib/gcc/arm-none-eabi/6.3.0/../../../../arm-none-eabi/lib/thumb\libg.a(lib_a-makebuf.o)
 .text          0x00000000        0x0 c:/code/devkitpro/devkitarm/bin/../lib/gcc/arm-none-eabi/6.3.0/../../../../arm-none-eabi/lib/thumb\libg.a(lib_a-malloc.o)
 .data          0x00000000        0x0 c:/code/devkitpro/devkitarm/bin/../lib/gcc/arm-none-eabi/6.3.0/../../../../arm-none-eabi/lib/thumb\libg.a(lib_a-malloc.o)
 .bss           0x00000000        0x0 c:/code/devkitpro/devkitarm/bin/../lib/gcc/arm-none-eabi/6.3.0/../../../../arm-none-eabi/lib/thumb\libg.a(lib_a-malloc.o)
 .text          0x00000000        0x0 c:/code/devkitpro/devkitarm/bin/../lib/gcc/arm-none-eabi/6.3.0/../../../../arm-none-eabi/lib/thumb\libg.a(lib_a-mallocr.o)
 .data          0x00000000        0x0 c:/code/devkitpro/devkitarm/bin/../lib/gcc/arm-none-eabi/6.3.0/../../../../arm-none-eabi/lib/thumb\libg.a(lib_a-mallocr.o)
 .bss           0x00000000        0x0 c:/code/devkitpro/devkitarm/bin/../lib/gcc/arm-none-eabi/6.3.0/../../../../arm-none-eabi/lib/thumb\libg.a(lib_a-mallocr.o)
 .text          0x00000000        0x0 c:/code/devkitpro/devkitarm/bin/../lib/gcc/arm-none-eabi/6.3.0/../../../../arm-none-eabi/lib/thumb\libg.a(lib_a-mbrtowc.o)
 .data          0x00000000        0x0 c:/code/devkitpro/devkitarm/bin/../lib/gcc/arm-none-eabi/6.3.0/../../../../arm-none-eabi/lib/thumb\libg.a(lib_a-mbrtowc.o)
 .bss           0x00000000        0x0 c:/code/devkitpro/devkitarm/bin/../lib/gcc/arm-none-eabi/6.3.0/../../../../arm-none-eabi/lib/thumb\libg.a(lib_a-mbrtowc.o)
 .text          0x00000000        0x0 c:/code/devkitpro/devkitarm/bin/../lib/gcc/arm-none-eabi/6.3.0/../../../../arm-none-eabi/lib/thumb\libg.a(lib_a-mbsrtowcs.o)
 .data          0x00000000        0x0 c:/code/devkitpro/devkitarm/bin/../lib/gcc/arm-none-eabi/6.3.0/../../../../arm-none-eabi/lib/thumb\libg.a(lib_a-mbsrtowcs.o)
 .bss           0x00000000        0x0 c:/code/devkitpro/devkitarm/bin/../lib/gcc/arm-none-eabi/6.3.0/../../../../arm-none-eabi/lib/thumb\libg.a(lib_a-mbsrtowcs.o)
 .text._mbsrtowcs_r
                0x00000000       0x1c c:/code/devkitpro/devkitarm/bin/../lib/gcc/arm-none-eabi/6.3.0/../../../../arm-none-eabi/lib/thumb\libg.a(lib_a-mbsrtowcs.o)
 .text          0x00000000        0x0 c:/code/devkitpro/devkitarm/bin/../lib/gcc/arm-none-eabi/6.3.0/../../../../arm-none-eabi/lib/thumb\libg.a(lib_a-mbtowc_r.o)
 .data          0x00000000        0x0 c:/code/devkitpro/devkitarm/bin/../lib/gcc/arm-none-eabi/6.3.0/../../../../arm-none-eabi/lib/thumb\libg.a(lib_a-mbtowc_r.o)
 .bss           0x00000000        0x0 c:/code/devkitpro/devkitarm/bin/../lib/gcc/arm-none-eabi/6.3.0/../../../../arm-none-eabi/lib/thumb\libg.a(lib_a-mbtowc_r.o)
 .text._mbtowc_r
                0x00000000       0x48 c:/code/devkitpro/devkitarm/bin/../lib/gcc/arm-none-eabi/6.3.0/../../../../arm-none-eabi/lib/thumb\libg.a(lib_a-mbtowc_r.o)
 .text.__ascii_mbtowc
                0x00000000       0x2c c:/code/devkitpro/devkitarm/bin/../lib/gcc/arm-none-eabi/6.3.0/../../../../arm-none-eabi/lib/thumb\libg.a(lib_a-mbtowc_r.o)
 .text.__sjis_mbtowc
                0x00000000       0xb0 c:/code/devkitpro/devkitarm/bin/../lib/gcc/arm-none-eabi/6.3.0/../../../../arm-none-eabi/lib/thumb\libg.a(lib_a-mbtowc_r.o)
 .text.__eucjp_mbtowc
                0x00000000       0xcc c:/code/devkitpro/devkitarm/bin/../lib/gcc/arm-none-eabi/6.3.0/../../../../arm-none-eabi/lib/thumb\libg.a(lib_a-mbtowc_r.o)
 .text.__jis_mbtowc
                0x00000000      0x140 c:/code/devkitpro/devkitarm/bin/../lib/gcc/arm-none-eabi/6.3.0/../../../../arm-none-eabi/lib/thumb\libg.a(lib_a-mbtowc_r.o)
 .rodata.__jis_mbtowc
                0x00000000       0x18 c:/code/devkitpro/devkitarm/bin/../lib/gcc/arm-none-eabi/6.3.0/../../../../arm-none-eabi/lib/thumb\libg.a(lib_a-mbtowc_r.o)
 .rodata.JIS_action_table
                0x00000000       0x48 c:/code/devkitpro/devkitarm/bin/../lib/gcc/arm-none-eabi/6.3.0/../../../../arm-none-eabi/lib/thumb\libg.a(lib_a-mbtowc_r.o)
 .rodata.JIS_state_table
                0x00000000       0x48 c:/code/devkitpro/devkitarm/bin/../lib/gcc/arm-none-eabi/6.3.0/../../../../arm-none-eabi/lib/thumb\libg.a(lib_a-mbtowc_r.o)
 .text          0x00000000        0x0 c:/code/devkitpro/devkitarm/bin/../lib/gcc/arm-none-eabi/6.3.0/../../../../arm-none-eabi/lib/thumb\libg.a(lib_a-memcmp.o)
 .data          0x00000000        0x0 c:/code/devkitpro/devkitarm/bin/../lib/gcc/arm-none-eabi/6.3.0/../../../../arm-none-eabi/lib/thumb\libg.a(lib_a-memcmp.o)
 .bss           0x00000000        0x0 c:/code/devkitpro/devkitarm/bin/../lib/gcc/arm-none-eabi/6.3.0/../../../../arm-none-eabi/lib/thumb\libg.a(lib_a-memcmp.o)
 .text          0x00000000        0x0 c:/code/devkitpro/devkitarm/bin/../lib/gcc/arm-none-eabi/6.3.0/../../../../arm-none-eabi/lib/thumb\libg.a(lib_a-memcpy-stub.o)
 .data          0x00000000        0x0 c:/code/devkitpro/devkitarm/bin/../lib/gcc/arm-none-eabi/6.3.0/../../../../arm-none-eabi/lib/thumb\libg.a(lib_a-memcpy-stub.o)
 .bss           0x00000000        0x0 c:/code/devkitpro/devkitarm/bin/../lib/gcc/arm-none-eabi/6.3.0/../../../../arm-none-eabi/lib/thumb\libg.a(lib_a-memcpy-stub.o)
 .text          0x00000000        0x0 c:/code/devkitpro/devkitarm/bin/../lib/gcc/arm-none-eabi/6.3.0/../../../../arm-none-eabi/lib/thumb\libg.a(lib_a-memmove.o)
 .data          0x00000000        0x0 c:/code/devkitpro/devkitarm/bin/../lib/gcc/arm-none-eabi/6.3.0/../../../../arm-none-eabi/lib/thumb\libg.a(lib_a-memmove.o)
 .bss           0x00000000        0x0 c:/code/devkitpro/devkitarm/bin/../lib/gcc/arm-none-eabi/6.3.0/../../../../arm-none-eabi/lib/thumb\libg.a(lib_a-memmove.o)
 .text          0x00000000        0x0 c:/code/devkitpro/devkitarm/bin/../lib/gcc/arm-none-eabi/6.3.0/../../../../arm-none-eabi/lib/thumb\libg.a(lib_a-memset.o)
 .data          0x00000000        0x0 c:/code/devkitpro/devkitarm/bin/../lib/gcc/arm-none-eabi/6.3.0/../../../../arm-none-eabi/lib/thumb\libg.a(lib_a-memset.o)
 .bss           0x00000000        0x0 c:/code/devkitpro/devkitarm/bin/../lib/gcc/arm-none-eabi/6.3.0/../../../../arm-none-eabi/lib/thumb\libg.a(lib_a-memset.o)
 .text          0x00000000        0x0 c:/code/devkitpro/devkitarm/bin/../lib/gcc/arm-none-eabi/6.3.0/../../../../arm-none-eabi/lib/thumb\libg.a(lib_a-mktime.o)
 .data          0x00000000        0x0 c:/code/devkitpro/devkitarm/bin/../lib/gcc/arm-none-eabi/6.3.0/../../../../arm-none-eabi/lib/thumb\libg.a(lib_a-mktime.o)
 .bss           0x00000000        0x0 c:/code/devkitpro/devkitarm/bin/../lib/gcc/arm-none-eabi/6.3.0/../../../../arm-none-eabi/lib/thumb\libg.a(lib_a-mktime.o)
 .text          0x00000000        0x0 c:/code/devkitpro/devkitarm/bin/../lib/gcc/arm-none-eabi/6.3.0/../../../../arm-none-eabi/lib/thumb\libg.a(lib_a-mlock.o)
 .data          0x00000000        0x0 c:/code/devkitpro/devkitarm/bin/../lib/gcc/arm-none-eabi/6.3.0/../../../../arm-none-eabi/lib/thumb\libg.a(lib_a-mlock.o)
 .bss           0x00000000        0x0 c:/code/devkitpro/devkitarm/bin/../lib/gcc/arm-none-eabi/6.3.0/../../../../arm-none-eabi/lib/thumb\libg.a(lib_a-mlock.o)
 .text          0x00000000        0x0 c:/code/devkitpro/devkitarm/bin/../lib/gcc/arm-none-eabi/6.3.0/../../../../arm-none-eabi/lib/thumb\libg.a(lib_a-month_lengths.o)
 .data          0x00000000        0x0 c:/code/devkitpro/devkitarm/bin/../lib/gcc/arm-none-eabi/6.3.0/../../../../arm-none-eabi/lib/thumb\libg.a(lib_a-month_lengths.o)
 .bss           0x00000000        0x0 c:/code/devkitpro/devkitarm/bin/../lib/gcc/arm-none-eabi/6.3.0/../../../../arm-none-eabi/lib/thumb\libg.a(lib_a-month_lengths.o)
 .text          0x00000000        0x0 c:/code/devkitpro/devkitarm/bin/../lib/gcc/arm-none-eabi/6.3.0/../../../../arm-none-eabi/lib/thumb\libg.a(lib_a-rand.o)
 .data          0x00000000        0x0 c:/code/devkitpro/devkitarm/bin/../lib/gcc/arm-none-eabi/6.3.0/../../../../arm-none-eabi/lib/thumb\libg.a(lib_a-rand.o)
 .bss           0x00000000        0x0 c:/code/devkitpro/devkitarm/bin/../lib/gcc/arm-none-eabi/6.3.0/../../../../arm-none-eabi/lib/thumb\libg.a(lib_a-rand.o)
 .text          0x00000000        0x0 c:/code/devkitpro/devkitarm/bin/../lib/gcc/arm-none-eabi/6.3.0/../../../../arm-none-eabi/lib/thumb\libg.a(lib_a-realloc.o)
 .data          0x00000000        0x0 c:/code/devkitpro/devkitarm/bin/../lib/gcc/arm-none-eabi/6.3.0/../../../../arm-none-eabi/lib/thumb\libg.a(lib_a-realloc.o)
 .bss           0x00000000        0x0 c:/code/devkitpro/devkitarm/bin/../lib/gcc/arm-none-eabi/6.3.0/../../../../arm-none-eabi/lib/thumb\libg.a(lib_a-realloc.o)
 .text          0x00000000        0x0 c:/code/devkitpro/devkitarm/bin/../lib/gcc/arm-none-eabi/6.3.0/../../../../arm-none-eabi/lib/thumb\libg.a(lib_a-reallocr.o)
 .data          0x00000000        0x0 c:/code/devkitpro/devkitarm/bin/../lib/gcc/arm-none-eabi/6.3.0/../../../../arm-none-eabi/lib/thumb\libg.a(lib_a-reallocr.o)
 .bss           0x00000000        0x0 c:/code/devkitpro/devkitarm/bin/../lib/gcc/arm-none-eabi/6.3.0/../../../../arm-none-eabi/lib/thumb\libg.a(lib_a-reallocr.o)
 .text          0x00000000        0x0 c:/code/devkitpro/devkitarm/bin/../lib/gcc/arm-none-eabi/6.3.0/../../../../arm-none-eabi/lib/thumb\libg.a(lib_a-refill.o)
 .data          0x00000000        0x0 c:/code/devkitpro/devkitarm/bin/../lib/gcc/arm-none-eabi/6.3.0/../../../../arm-none-eabi/lib/thumb\libg.a(lib_a-refill.o)
 .bss           0x00000000        0x0 c:/code/devkitpro/devkitarm/bin/../lib/gcc/arm-none-eabi/6.3.0/../../../../arm-none-eabi/lib/thumb\libg.a(lib_a-refill.o)
 .text          0x00000000        0x0 c:/code/devkitpro/devkitarm/bin/../lib/gcc/arm-none-eabi/6.3.0/../../../../arm-none-eabi/lib/thumb\libg.a(lib_a-rewind.o)
 .data          0x00000000        0x0 c:/code/devkitpro/devkitarm/bin/../lib/gcc/arm-none-eabi/6.3.0/../../../../arm-none-eabi/lib/thumb\libg.a(lib_a-rewind.o)
 .bss           0x00000000        0x0 c:/code/devkitpro/devkitarm/bin/../lib/gcc/arm-none-eabi/6.3.0/../../../../arm-none-eabi/lib/thumb\libg.a(lib_a-rewind.o)
 .text._rewind_r
                0x00000000       0x24 c:/code/devkitpro/devkitarm/bin/../lib/gcc/arm-none-eabi/6.3.0/../../../../arm-none-eabi/lib/thumb\libg.a(lib_a-rewind.o)
 .text          0x00000000        0x0 c:/code/devkitpro/devkitarm/bin/../lib/gcc/arm-none-eabi/6.3.0/../../../../arm-none-eabi/lib/thumb\libg.a(lib_a-setvbuf.o)
 .data          0x00000000        0x0 c:/code/devkitpro/devkitarm/bin/../lib/gcc/arm-none-eabi/6.3.0/../../../../arm-none-eabi/lib/thumb\libg.a(lib_a-setvbuf.o)
 .bss           0x00000000        0x0 c:/code/devkitpro/devkitarm/bin/../lib/gcc/arm-none-eabi/6.3.0/../../../../arm-none-eabi/lib/thumb\libg.a(lib_a-setvbuf.o)
 .text          0x00000000        0x0 c:/code/devkitpro/devkitarm/bin/../lib/gcc/arm-none-eabi/6.3.0/../../../../arm-none-eabi/lib/thumb\libg.a(lib_a-siscanf.o)
 .data          0x00000000        0x0 c:/code/devkitpro/devkitarm/bin/../lib/gcc/arm-none-eabi/6.3.0/../../../../arm-none-eabi/lib/thumb\libg.a(lib_a-siscanf.o)
 .bss           0x00000000        0x0 c:/code/devkitpro/devkitarm/bin/../lib/gcc/arm-none-eabi/6.3.0/../../../../arm-none-eabi/lib/thumb\libg.a(lib_a-siscanf.o)
 .text._siscanf_r
                0x00000000       0x4c c:/code/devkitpro/devkitarm/bin/../lib/gcc/arm-none-eabi/6.3.0/../../../../arm-none-eabi/lib/thumb\libg.a(lib_a-siscanf.o)
 .text          0x00000000        0x0 c:/code/devkitpro/devkitarm/bin/../lib/gcc/arm-none-eabi/6.3.0/../../../../arm-none-eabi/lib/thumb\libg.a(lib_a-sprintf.o)
 .data          0x00000000        0x0 c:/code/devkitpro/devkitarm/bin/../lib/gcc/arm-none-eabi/6.3.0/../../../../arm-none-eabi/lib/thumb\libg.a(lib_a-sprintf.o)
 .bss           0x00000000        0x0 c:/code/devkitpro/devkitarm/bin/../lib/gcc/arm-none-eabi/6.3.0/../../../../arm-none-eabi/lib/thumb\libg.a(lib_a-sprintf.o)
 .text._sprintf_r
                0x00000000       0x40 c:/code/devkitpro/devkitarm/bin/../lib/gcc/arm-none-eabi/6.3.0/../../../../arm-none-eabi/lib/thumb\libg.a(lib_a-sprintf.o)
 .text          0x00000000        0x0 c:/code/devkitpro/devkitarm/bin/../lib/gcc/arm-none-eabi/6.3.0/../../../../arm-none-eabi/lib/thumb\libg.a(lib_a-stdio.o)
 .data          0x00000000        0x0 c:/code/devkitpro/devkitarm/bin/../lib/gcc/arm-none-eabi/6.3.0/../../../../arm-none-eabi/lib/thumb\libg.a(lib_a-stdio.o)
 .bss           0x00000000        0x0 c:/code/devkitpro/devkitarm/bin/../lib/gcc/arm-none-eabi/6.3.0/../../../../arm-none-eabi/lib/thumb\libg.a(lib_a-stdio.o)
 .text          0x00000000        0x0 c:/code/devkitpro/devkitarm/bin/../lib/gcc/arm-none-eabi/6.3.0/../../../../arm-none-eabi/lib/thumb\libg.a(lib_a-stpcpy.o)
 .data          0x00000000        0x0 c:/code/devkitpro/devkitarm/bin/../lib/gcc/arm-none-eabi/6.3.0/../../../../arm-none-eabi/lib/thumb\libg.a(lib_a-stpcpy.o)
 .bss           0x00000000        0x0 c:/code/devkitpro/devkitarm/bin/../lib/gcc/arm-none-eabi/6.3.0/../../../../arm-none-eabi/lib/thumb\libg.a(lib_a-stpcpy.o)
 .text          0x00000000        0x0 c:/code/devkitpro/devkitarm/bin/../lib/gcc/arm-none-eabi/6.3.0/../../../../arm-none-eabi/lib/thumb\libg.a(lib_a-strcasecmp.o)
 .data          0x00000000        0x0 c:/code/devkitpro/devkitarm/bin/../lib/gcc/arm-none-eabi/6.3.0/../../../../arm-none-eabi/lib/thumb\libg.a(lib_a-strcasecmp.o)
 .bss           0x00000000        0x0 c:/code/devkitpro/devkitarm/bin/../lib/gcc/arm-none-eabi/6.3.0/../../../../arm-none-eabi/lib/thumb\libg.a(lib_a-strcasecmp.o)
 .text.strcasecmp
                0x00000000       0x58 c:/code/devkitpro/devkitarm/bin/../lib/gcc/arm-none-eabi/6.3.0/../../../../arm-none-eabi/lib/thumb\libg.a(lib_a-strcasecmp.o)
 .comment       0x00000000       0x23 c:/code/devkitpro/devkitarm/bin/../lib/gcc/arm-none-eabi/6.3.0/../../../../arm-none-eabi/lib/thumb\libg.a(lib_a-strcasecmp.o)
 .ARM.attributes
                0x00000000       0x30 c:/code/devkitpro/devkitarm/bin/../lib/gcc/arm-none-eabi/6.3.0/../../../../arm-none-eabi/lib/thumb\libg.a(lib_a-strcasecmp.o)
 .text          0x00000000        0x0 c:/code/devkitpro/devkitarm/bin/../lib/gcc/arm-none-eabi/6.3.0/../../../../arm-none-eabi/lib/thumb\libg.a(lib_a-strcat.o)
 .data          0x00000000        0x0 c:/code/devkitpro/devkitarm/bin/../lib/gcc/arm-none-eabi/6.3.0/../../../../arm-none-eabi/lib/thumb\libg.a(lib_a-strcat.o)
 .bss           0x00000000        0x0 c:/code/devkitpro/devkitarm/bin/../lib/gcc/arm-none-eabi/6.3.0/../../../../arm-none-eabi/lib/thumb\libg.a(lib_a-strcat.o)
 .text.strcat   0x00000000       0x50 c:/code/devkitpro/devkitarm/bin/../lib/gcc/arm-none-eabi/6.3.0/../../../../arm-none-eabi/lib/thumb\libg.a(lib_a-strcat.o)
 .comment       0x00000000       0x23 c:/code/devkitpro/devkitarm/bin/../lib/gcc/arm-none-eabi/6.3.0/../../../../arm-none-eabi/lib/thumb\libg.a(lib_a-strcat.o)
 .ARM.attributes
                0x00000000       0x30 c:/code/devkitpro/devkitarm/bin/../lib/gcc/arm-none-eabi/6.3.0/../../../../arm-none-eabi/lib/thumb\libg.a(lib_a-strcat.o)
 .text          0x00000000        0x0 c:/code/devkitpro/devkitarm/bin/../lib/gcc/arm-none-eabi/6.3.0/../../../../arm-none-eabi/lib/thumb\libg.a(lib_a-strchr.o)
 .data          0x00000000        0x0 c:/code/devkitpro/devkitarm/bin/../lib/gcc/arm-none-eabi/6.3.0/../../../../arm-none-eabi/lib/thumb\libg.a(lib_a-strchr.o)
 .bss           0x00000000        0x0 c:/code/devkitpro/devkitarm/bin/../lib/gcc/arm-none-eabi/6.3.0/../../../../arm-none-eabi/lib/thumb\libg.a(lib_a-strchr.o)
 .data          0x00000000        0x0 c:/code/devkitpro/devkitarm/bin/../lib/gcc/arm-none-eabi/6.3.0/../../../../arm-none-eabi/lib/thumb\libg.a(lib_a-strcmp.o)
 .bss           0x00000000        0x0 c:/code/devkitpro/devkitarm/bin/../lib/gcc/arm-none-eabi/6.3.0/../../../../arm-none-eabi/lib/thumb\libg.a(lib_a-strcmp.o)
 .text          0x00000000        0x0 c:/code/devkitpro/devkitarm/bin/../lib/gcc/arm-none-eabi/6.3.0/../../../../arm-none-eabi/lib/thumb\libg.a(lib_a-strcpy.o)
 .data          0x00000000        0x0 c:/code/devkitpro/devkitarm/bin/../lib/gcc/arm-none-eabi/6.3.0/../../../../arm-none-eabi/lib/thumb\libg.a(lib_a-strcpy.o)
 .bss           0x00000000        0x0 c:/code/devkitpro/devkitarm/bin/../lib/gcc/arm-none-eabi/6.3.0/../../../../arm-none-eabi/lib/thumb\libg.a(lib_a-strcpy.o)
 .text          0x00000000        0x0 c:/code/devkitpro/devkitarm/bin/../lib/gcc/arm-none-eabi/6.3.0/../../../../arm-none-eabi/lib/thumb\libg.a(lib_a-strdup.o)
 .data          0x00000000        0x0 c:/code/devkitpro/devkitarm/bin/../lib/gcc/arm-none-eabi/6.3.0/../../../../arm-none-eabi/lib/thumb\libg.a(lib_a-strdup.o)
 .bss           0x00000000        0x0 c:/code/devkitpro/devkitarm/bin/../lib/gcc/arm-none-eabi/6.3.0/../../../../arm-none-eabi/lib/thumb\libg.a(lib_a-strdup.o)
 .text          0x00000000        0x0 c:/code/devkitpro/devkitarm/bin/../lib/gcc/arm-none-eabi/6.3.0/../../../../arm-none-eabi/lib/thumb\libg.a(lib_a-strdup_r.o)
 .data          0x00000000        0x0 c:/code/devkitpro/devkitarm/bin/../lib/gcc/arm-none-eabi/6.3.0/../../../../arm-none-eabi/lib/thumb\libg.a(lib_a-strdup_r.o)
 .bss           0x00000000        0x0 c:/code/devkitpro/devkitarm/bin/../lib/gcc/arm-none-eabi/6.3.0/../../../../arm-none-eabi/lib/thumb\libg.a(lib_a-strdup_r.o)
 .text          0x00000000        0x0 c:/code/devkitpro/devkitarm/bin/../lib/gcc/arm-none-eabi/6.3.0/../../../../arm-none-eabi/lib/thumb\libg.a(lib_a-strlcpy.o)
 .data          0x00000000        0x0 c:/code/devkitpro/devkitarm/bin/../lib/gcc/arm-none-eabi/6.3.0/../../../../arm-none-eabi/lib/thumb\libg.a(lib_a-strlcpy.o)
 .bss           0x00000000        0x0 c:/code/devkitpro/devkitarm/bin/../lib/gcc/arm-none-eabi/6.3.0/../../../../arm-none-eabi/lib/thumb\libg.a(lib_a-strlcpy.o)
 .text.strlcpy  0x00000000       0x4c c:/code/devkitpro/devkitarm/bin/../lib/gcc/arm-none-eabi/6.3.0/../../../../arm-none-eabi/lib/thumb\libg.a(lib_a-strlcpy.o)
 .comment       0x00000000       0x23 c:/code/devkitpro/devkitarm/bin/../lib/gcc/arm-none-eabi/6.3.0/../../../../arm-none-eabi/lib/thumb\libg.a(lib_a-strlcpy.o)
 .ARM.attributes
                0x00000000       0x30 c:/code/devkitpro/devkitarm/bin/../lib/gcc/arm-none-eabi/6.3.0/../../../../arm-none-eabi/lib/thumb\libg.a(lib_a-strlcpy.o)
 .text          0x00000000        0x0 c:/code/devkitpro/devkitarm/bin/../lib/gcc/arm-none-eabi/6.3.0/../../../../arm-none-eabi/lib/thumb\libg.a(lib_a-strlen-stub.o)
 .data          0x00000000        0x0 c:/code/devkitpro/devkitarm/bin/../lib/gcc/arm-none-eabi/6.3.0/../../../../arm-none-eabi/lib/thumb\libg.a(lib_a-strlen-stub.o)
 .bss           0x00000000        0x0 c:/code/devkitpro/devkitarm/bin/../lib/gcc/arm-none-eabi/6.3.0/../../../../arm-none-eabi/lib/thumb\libg.a(lib_a-strlen-stub.o)
 .text          0x00000000        0x0 c:/code/devkitpro/devkitarm/bin/../lib/gcc/arm-none-eabi/6.3.0/../../../../arm-none-eabi/lib/thumb\libg.a(lib_a-strncasecmp.o)
 .data          0x00000000        0x0 c:/code/devkitpro/devkitarm/bin/../lib/gcc/arm-none-eabi/6.3.0/../../../../arm-none-eabi/lib/thumb\libg.a(lib_a-strncasecmp.o)
 .bss           0x00000000        0x0 c:/code/devkitpro/devkitarm/bin/../lib/gcc/arm-none-eabi/6.3.0/../../../../arm-none-eabi/lib/thumb\libg.a(lib_a-strncasecmp.o)
 .text          0x00000000        0x0 c:/code/devkitpro/devkitarm/bin/../lib/gcc/arm-none-eabi/6.3.0/../../../../arm-none-eabi/lib/thumb\libg.a(lib_a-strncmp.o)
 .data          0x00000000        0x0 c:/code/devkitpro/devkitarm/bin/../lib/gcc/arm-none-eabi/6.3.0/../../../../arm-none-eabi/lib/thumb\libg.a(lib_a-strncmp.o)
 .bss           0x00000000        0x0 c:/code/devkitpro/devkitarm/bin/../lib/gcc/arm-none-eabi/6.3.0/../../../../arm-none-eabi/lib/thumb\libg.a(lib_a-strncmp.o)
 .text          0x00000000        0x0 c:/code/devkitpro/devkitarm/bin/../lib/gcc/arm-none-eabi/6.3.0/../../../../arm-none-eabi/lib/thumb\libg.a(lib_a-strncpy.o)
 .data          0x00000000        0x0 c:/code/devkitpro/devkitarm/bin/../lib/gcc/arm-none-eabi/6.3.0/../../../../arm-none-eabi/lib/thumb\libg.a(lib_a-strncpy.o)
 .bss           0x00000000        0x0 c:/code/devkitpro/devkitarm/bin/../lib/gcc/arm-none-eabi/6.3.0/../../../../arm-none-eabi/lib/thumb\libg.a(lib_a-strncpy.o)
 .text          0x00000000        0x0 c:/code/devkitpro/devkitarm/bin/../lib/gcc/arm-none-eabi/6.3.0/../../../../arm-none-eabi/lib/thumb\libg.a(lib_a-strnlen.o)
 .data          0x00000000        0x0 c:/code/devkitpro/devkitarm/bin/../lib/gcc/arm-none-eabi/6.3.0/../../../../arm-none-eabi/lib/thumb\libg.a(lib_a-strnlen.o)
 .bss           0x00000000        0x0 c:/code/devkitpro/devkitarm/bin/../lib/gcc/arm-none-eabi/6.3.0/../../../../arm-none-eabi/lib/thumb\libg.a(lib_a-strnlen.o)
 .text          0x00000000        0x0 c:/code/devkitpro/devkitarm/bin/../lib/gcc/arm-none-eabi/6.3.0/../../../../arm-none-eabi/lib/thumb\libg.a(lib_a-strpbrk.o)
 .data          0x00000000        0x0 c:/code/devkitpro/devkitarm/bin/../lib/gcc/arm-none-eabi/6.3.0/../../../../arm-none-eabi/lib/thumb\libg.a(lib_a-strpbrk.o)
 .bss           0x00000000        0x0 c:/code/devkitpro/devkitarm/bin/../lib/gcc/arm-none-eabi/6.3.0/../../../../arm-none-eabi/lib/thumb\libg.a(lib_a-strpbrk.o)
 .text          0x00000000        0x0 c:/code/devkitpro/devkitarm/bin/../lib/gcc/arm-none-eabi/6.3.0/../../../../arm-none-eabi/lib/thumb\libg.a(lib_a-strrchr.o)
 .data          0x00000000        0x0 c:/code/devkitpro/devkitarm/bin/../lib/gcc/arm-none-eabi/6.3.0/../../../../arm-none-eabi/lib/thumb\libg.a(lib_a-strrchr.o)
 .bss           0x00000000        0x0 c:/code/devkitpro/devkitarm/bin/../lib/gcc/arm-none-eabi/6.3.0/../../../../arm-none-eabi/lib/thumb\libg.a(lib_a-strrchr.o)
 .text          0x00000000        0x0 c:/code/devkitpro/devkitarm/bin/../lib/gcc/arm-none-eabi/6.3.0/../../../../arm-none-eabi/lib/thumb\libg.a(lib_a-strtol.o)
 .data          0x00000000        0x0 c:/code/devkitpro/devkitarm/bin/../lib/gcc/arm-none-eabi/6.3.0/../../../../arm-none-eabi/lib/thumb\libg.a(lib_a-strtol.o)
 .bss           0x00000000        0x0 c:/code/devkitpro/devkitarm/bin/../lib/gcc/arm-none-eabi/6.3.0/../../../../arm-none-eabi/lib/thumb\libg.a(lib_a-strtol.o)
 .text.strtol_l
                0x00000000       0x24 c:/code/devkitpro/devkitarm/bin/../lib/gcc/arm-none-eabi/6.3.0/../../../../arm-none-eabi/lib/thumb\libg.a(lib_a-strtol.o)
 .text.strtol   0x00000000       0x38 c:/code/devkitpro/devkitarm/bin/../lib/gcc/arm-none-eabi/6.3.0/../../../../arm-none-eabi/lib/thumb\libg.a(lib_a-strtol.o)
 .text          0x00000000        0x0 c:/code/devkitpro/devkitarm/bin/../lib/gcc/arm-none-eabi/6.3.0/../../../../arm-none-eabi/lib/thumb\libg.a(lib_a-svfiscanf.o)
 .data          0x00000000        0x0 c:/code/devkitpro/devkitarm/bin/../lib/gcc/arm-none-eabi/6.3.0/../../../../arm-none-eabi/lib/thumb\libg.a(lib_a-svfiscanf.o)
 .bss           0x00000000        0x0 c:/code/devkitpro/devkitarm/bin/../lib/gcc/arm-none-eabi/6.3.0/../../../../arm-none-eabi/lib/thumb\libg.a(lib_a-svfiscanf.o)
 .text          0x00000000        0x0 c:/code/devkitpro/devkitarm/bin/../lib/gcc/arm-none-eabi/6.3.0/../../../../arm-none-eabi/lib/thumb\libg.a(lib_a-svfprintf.o)
 .data          0x00000000        0x0 c:/code/devkitpro/devkitarm/bin/../lib/gcc/arm-none-eabi/6.3.0/../../../../arm-none-eabi/lib/thumb\libg.a(lib_a-svfprintf.o)
 .bss           0x00000000        0x0 c:/code/devkitpro/devkitarm/bin/../lib/gcc/arm-none-eabi/6.3.0/../../../../arm-none-eabi/lib/thumb\libg.a(lib_a-svfprintf.o)
 .text          0x00000000        0x0 c:/code/devkitpro/devkitarm/bin/../lib/gcc/arm-none-eabi/6.3.0/../../../../arm-none-eabi/lib/thumb\libg.a(lib_a-sysclose.o)
 .data          0x00000000        0x0 c:/code/devkitpro/devkitarm/bin/../lib/gcc/arm-none-eabi/6.3.0/../../../../arm-none-eabi/lib/thumb\libg.a(lib_a-sysclose.o)
 .bss           0x00000000        0x0 c:/code/devkitpro/devkitarm/bin/../lib/gcc/arm-none-eabi/6.3.0/../../../../arm-none-eabi/lib/thumb\libg.a(lib_a-sysclose.o)
 .text.close    0x00000000       0x14 c:/code/devkitpro/devkitarm/bin/../lib/gcc/arm-none-eabi/6.3.0/../../../../arm-none-eabi/lib/thumb\libg.a(lib_a-sysclose.o)
 .comment       0x00000000       0x23 c:/code/devkitpro/devkitarm/bin/../lib/gcc/arm-none-eabi/6.3.0/../../../../arm-none-eabi/lib/thumb\libg.a(lib_a-sysclose.o)
 .ARM.attributes
                0x00000000       0x30 c:/code/devkitpro/devkitarm/bin/../lib/gcc/arm-none-eabi/6.3.0/../../../../arm-none-eabi/lib/thumb\libg.a(lib_a-sysclose.o)
 .text          0x00000000        0x0 c:/code/devkitpro/devkitarm/bin/../lib/gcc/arm-none-eabi/6.3.0/../../../../arm-none-eabi/lib/thumb\libg.a(lib_a-syslseek.o)
 .data          0x00000000        0x0 c:/code/devkitpro/devkitarm/bin/../lib/gcc/arm-none-eabi/6.3.0/../../../../arm-none-eabi/lib/thumb\libg.a(lib_a-syslseek.o)
 .bss           0x00000000        0x0 c:/code/devkitpro/devkitarm/bin/../lib/gcc/arm-none-eabi/6.3.0/../../../../arm-none-eabi/lib/thumb\libg.a(lib_a-syslseek.o)
 .text          0x00000000        0x0 c:/code/devkitpro/devkitarm/bin/../lib/gcc/arm-none-eabi/6.3.0/../../../../arm-none-eabi/lib/thumb\libg.a(lib_a-sysopen.o)
 .data          0x00000000        0x0 c:/code/devkitpro/devkitarm/bin/../lib/gcc/arm-none-eabi/6.3.0/../../../../arm-none-eabi/lib/thumb\libg.a(lib_a-sysopen.o)
 .bss           0x00000000        0x0 c:/code/devkitpro/devkitarm/bin/../lib/gcc/arm-none-eabi/6.3.0/../../../../arm-none-eabi/lib/thumb\libg.a(lib_a-sysopen.o)
 .text          0x00000000        0x0 c:/code/devkitpro/devkitarm/bin/../lib/gcc/arm-none-eabi/6.3.0/../../../../arm-none-eabi/lib/thumb\libg.a(lib_a-sysread.o)
 .data          0x00000000        0x0 c:/code/devkitpro/devkitarm/bin/../lib/gcc/arm-none-eabi/6.3.0/../../../../arm-none-eabi/lib/thumb\libg.a(lib_a-sysread.o)
 .bss           0x00000000        0x0 c:/code/devkitpro/devkitarm/bin/../lib/gcc/arm-none-eabi/6.3.0/../../../../arm-none-eabi/lib/thumb\libg.a(lib_a-sysread.o)
 .text          0x00000000        0x0 c:/code/devkitpro/devkitarm/bin/../lib/gcc/arm-none-eabi/6.3.0/../../../../arm-none-eabi/lib/thumb\libg.a(lib_a-time.o)
 .data          0x00000000        0x0 c:/code/devkitpro/devkitarm/bin/../lib/gcc/arm-none-eabi/6.3.0/../../../../arm-none-eabi/lib/thumb\libg.a(lib_a-time.o)
 .bss           0x00000000        0x0 c:/code/devkitpro/devkitarm/bin/../lib/gcc/arm-none-eabi/6.3.0/../../../../arm-none-eabi/lib/thumb\libg.a(lib_a-time.o)
 .text          0x00000000        0x0 c:/code/devkitpro/devkitarm/bin/../lib/gcc/arm-none-eabi/6.3.0/../../../../arm-none-eabi/lib/thumb\libg.a(lib_a-towlower.o)
 .data          0x00000000        0x0 c:/code/devkitpro/devkitarm/bin/../lib/gcc/arm-none-eabi/6.3.0/../../../../arm-none-eabi/lib/thumb\libg.a(lib_a-towlower.o)
 .bss           0x00000000        0x0 c:/code/devkitpro/devkitarm/bin/../lib/gcc/arm-none-eabi/6.3.0/../../../../arm-none-eabi/lib/thumb\libg.a(lib_a-towlower.o)
 .text          0x00000000        0x0 c:/code/devkitpro/devkitarm/bin/../lib/gcc/arm-none-eabi/6.3.0/../../../../arm-none-eabi/lib/thumb\libg.a(lib_a-towupper.o)
 .data          0x00000000        0x0 c:/code/devkitpro/devkitarm/bin/../lib/gcc/arm-none-eabi/6.3.0/../../../../arm-none-eabi/lib/thumb\libg.a(lib_a-towupper.o)
 .bss           0x00000000        0x0 c:/code/devkitpro/devkitarm/bin/../lib/gcc/arm-none-eabi/6.3.0/../../../../arm-none-eabi/lib/thumb\libg.a(lib_a-towupper.o)
 .text          0x00000000        0x0 c:/code/devkitpro/devkitarm/bin/../lib/gcc/arm-none-eabi/6.3.0/../../../../arm-none-eabi/lib/thumb\libg.a(lib_a-tzcalc_limits.o)
 .data          0x00000000        0x0 c:/code/devkitpro/devkitarm/bin/../lib/gcc/arm-none-eabi/6.3.0/../../../../arm-none-eabi/lib/thumb\libg.a(lib_a-tzcalc_limits.o)
 .bss           0x00000000        0x0 c:/code/devkitpro/devkitarm/bin/../lib/gcc/arm-none-eabi/6.3.0/../../../../arm-none-eabi/lib/thumb\libg.a(lib_a-tzcalc_limits.o)
 .text          0x00000000        0x0 c:/code/devkitpro/devkitarm/bin/../lib/gcc/arm-none-eabi/6.3.0/../../../../arm-none-eabi/lib/thumb\libg.a(lib_a-tzlock.o)
 .data          0x00000000        0x0 c:/code/devkitpro/devkitarm/bin/../lib/gcc/arm-none-eabi/6.3.0/../../../../arm-none-eabi/lib/thumb\libg.a(lib_a-tzlock.o)
 .bss           0x00000000        0x0 c:/code/devkitpro/devkitarm/bin/../lib/gcc/arm-none-eabi/6.3.0/../../../../arm-none-eabi/lib/thumb\libg.a(lib_a-tzlock.o)
 .text          0x00000000        0x0 c:/code/devkitpro/devkitarm/bin/../lib/gcc/arm-none-eabi/6.3.0/../../../../arm-none-eabi/lib/thumb\libg.a(lib_a-tzset.o)
 .data          0x00000000        0x0 c:/code/devkitpro/devkitarm/bin/../lib/gcc/arm-none-eabi/6.3.0/../../../../arm-none-eabi/lib/thumb\libg.a(lib_a-tzset.o)
 .bss           0x00000000        0x0 c:/code/devkitpro/devkitarm/bin/../lib/gcc/arm-none-eabi/6.3.0/../../../../arm-none-eabi/lib/thumb\libg.a(lib_a-tzset.o)
 .text.tzset    0x00000000       0x18 c:/code/devkitpro/devkitarm/bin/../lib/gcc/arm-none-eabi/6.3.0/../../../../arm-none-eabi/lib/thumb\libg.a(lib_a-tzset.o)
 .text          0x00000000        0x0 c:/code/devkitpro/devkitarm/bin/../lib/gcc/arm-none-eabi/6.3.0/../../../../arm-none-eabi/lib/thumb\libg.a(lib_a-tzset_r.o)
 .data          0x00000000        0x0 c:/code/devkitpro/devkitarm/bin/../lib/gcc/arm-none-eabi/6.3.0/../../../../arm-none-eabi/lib/thumb\libg.a(lib_a-tzset_r.o)
 .bss           0x00000000        0x0 c:/code/devkitpro/devkitarm/bin/../lib/gcc/arm-none-eabi/6.3.0/../../../../arm-none-eabi/lib/thumb\libg.a(lib_a-tzset_r.o)
 .text._tzset_r
                0x00000000       0x18 c:/code/devkitpro/devkitarm/bin/../lib/gcc/arm-none-eabi/6.3.0/../../../../arm-none-eabi/lib/thumb\libg.a(lib_a-tzset_r.o)
 .text          0x00000000        0x0 c:/code/devkitpro/devkitarm/bin/../lib/gcc/arm-none-eabi/6.3.0/../../../../arm-none-eabi/lib/thumb\libg.a(lib_a-tzvars.o)
 .data          0x00000000        0x0 c:/code/devkitpro/devkitarm/bin/../lib/gcc/arm-none-eabi/6.3.0/../../../../arm-none-eabi/lib/thumb\libg.a(lib_a-tzvars.o)
 .bss           0x00000000        0x0 c:/code/devkitpro/devkitarm/bin/../lib/gcc/arm-none-eabi/6.3.0/../../../../arm-none-eabi/lib/thumb\libg.a(lib_a-tzvars.o)
 .text          0x00000000        0x0 c:/code/devkitpro/devkitarm/bin/../lib/gcc/arm-none-eabi/6.3.0/../../../../arm-none-eabi/lib/thumb\libg.a(lib_a-ungetc.o)
 .data          0x00000000        0x0 c:/code/devkitpro/devkitarm/bin/../lib/gcc/arm-none-eabi/6.3.0/../../../../arm-none-eabi/lib/thumb\libg.a(lib_a-ungetc.o)
 .bss           0x00000000        0x0 c:/code/devkitpro/devkitarm/bin/../lib/gcc/arm-none-eabi/6.3.0/../../../../arm-none-eabi/lib/thumb\libg.a(lib_a-ungetc.o)
 .text._ungetc_r
                0x00000000      0x11c c:/code/devkitpro/devkitarm/bin/../lib/gcc/arm-none-eabi/6.3.0/../../../../arm-none-eabi/lib/thumb\libg.a(lib_a-ungetc.o)
 .text.ungetc   0x00000000       0x18 c:/code/devkitpro/devkitarm/bin/../lib/gcc/arm-none-eabi/6.3.0/../../../../arm-none-eabi/lib/thumb\libg.a(lib_a-ungetc.o)
 .text          0x00000000        0x0 c:/code/devkitpro/devkitarm/bin/../lib/gcc/arm-none-eabi/6.3.0/../../../../arm-none-eabi/lib/thumb\libg.a(lib_a-vfiprintf.o)
 .data          0x00000000        0x0 c:/code/devkitpro/devkitarm/bin/../lib/gcc/arm-none-eabi/6.3.0/../../../../arm-none-eabi/lib/thumb\libg.a(lib_a-vfiprintf.o)
 .bss           0x00000000        0x0 c:/code/devkitpro/devkitarm/bin/../lib/gcc/arm-none-eabi/6.3.0/../../../../arm-none-eabi/lib/thumb\libg.a(lib_a-vfiprintf.o)
 .text.__sprint_r
                0x00000000       0x18 c:/code/devkitpro/devkitarm/bin/../lib/gcc/arm-none-eabi/6.3.0/../../../../arm-none-eabi/lib/thumb\libg.a(lib_a-vfiprintf.o)
 .text.vfiprintf
                0x00000000       0x1c c:/code/devkitpro/devkitarm/bin/../lib/gcc/arm-none-eabi/6.3.0/../../../../arm-none-eabi/lib/thumb\libg.a(lib_a-vfiprintf.o)
 .text          0x00000000        0x0 c:/code/devkitpro/devkitarm/bin/../lib/gcc/arm-none-eabi/6.3.0/../../../../arm-none-eabi/lib/thumb\libg.a(lib_a-wcrtomb.o)
 .data          0x00000000        0x0 c:/code/devkitpro/devkitarm/bin/../lib/gcc/arm-none-eabi/6.3.0/../../../../arm-none-eabi/lib/thumb\libg.a(lib_a-wcrtomb.o)
 .bss           0x00000000        0x0 c:/code/devkitpro/devkitarm/bin/../lib/gcc/arm-none-eabi/6.3.0/../../../../arm-none-eabi/lib/thumb\libg.a(lib_a-wcrtomb.o)
 .text          0x00000000        0x0 c:/code/devkitpro/devkitarm/bin/../lib/gcc/arm-none-eabi/6.3.0/../../../../arm-none-eabi/lib/thumb\libg.a(lib_a-wcsrtombs.o)
 .data          0x00000000        0x0 c:/code/devkitpro/devkitarm/bin/../lib/gcc/arm-none-eabi/6.3.0/../../../../arm-none-eabi/lib/thumb\libg.a(lib_a-wcsrtombs.o)
 .bss           0x00000000        0x0 c:/code/devkitpro/devkitarm/bin/../lib/gcc/arm-none-eabi/6.3.0/../../../../arm-none-eabi/lib/thumb\libg.a(lib_a-wcsrtombs.o)
 .text.wcsrtombs
                0x00000000       0x28 c:/code/devkitpro/devkitarm/bin/../lib/gcc/arm-none-eabi/6.3.0/../../../../arm-none-eabi/lib/thumb\libg.a(lib_a-wcsrtombs.o)
 .text          0x00000000        0x0 c:/code/devkitpro/devkitarm/bin/../lib/gcc/arm-none-eabi/6.3.0/../../../../arm-none-eabi/lib/thumb\libg.a(lib_a-wctob.o)
 .data          0x00000000        0x0 c:/code/devkitpro/devkitarm/bin/../lib/gcc/arm-none-eabi/6.3.0/../../../../arm-none-eabi/lib/thumb\libg.a(lib_a-wctob.o)
 .bss           0x00000000        0x0 c:/code/devkitpro/devkitarm/bin/../lib/gcc/arm-none-eabi/6.3.0/../../../../arm-none-eabi/lib/thumb\libg.a(lib_a-wctob.o)
 .text          0x00000000        0x0 c:/code/devkitpro/devkitarm/bin/../lib/gcc/arm-none-eabi/6.3.0/../../../../arm-none-eabi/lib/thumb\libg.a(lib_a-wctomb_r.o)
 .data          0x00000000        0x0 c:/code/devkitpro/devkitarm/bin/../lib/gcc/arm-none-eabi/6.3.0/../../../../arm-none-eabi/lib/thumb\libg.a(lib_a-wctomb_r.o)
 .bss           0x00000000        0x0 c:/code/devkitpro/devkitarm/bin/../lib/gcc/arm-none-eabi/6.3.0/../../../../arm-none-eabi/lib/thumb\libg.a(lib_a-wctomb_r.o)
 .text._wctomb_r
                0x00000000       0x40 c:/code/devkitpro/devkitarm/bin/../lib/gcc/arm-none-eabi/6.3.0/../../../../arm-none-eabi/lib/thumb\libg.a(lib_a-wctomb_r.o)
 .text.__ascii_wctomb
                0x00000000       0x1c c:/code/devkitpro/devkitarm/bin/../lib/gcc/arm-none-eabi/6.3.0/../../../../arm-none-eabi/lib/thumb\libg.a(lib_a-wctomb_r.o)
 .text.__sjis_wctomb
                0x00000000       0x80 c:/code/devkitpro/devkitarm/bin/../lib/gcc/arm-none-eabi/6.3.0/../../../../arm-none-eabi/lib/thumb\libg.a(lib_a-wctomb_r.o)
 .text.__eucjp_wctomb
                0x00000000       0x88 c:/code/devkitpro/devkitarm/bin/../lib/gcc/arm-none-eabi/6.3.0/../../../../arm-none-eabi/lib/thumb\libg.a(lib_a-wctomb_r.o)
 .text.__jis_wctomb
                0x00000000       0x7c c:/code/devkitpro/devkitarm/bin/../lib/gcc/arm-none-eabi/6.3.0/../../../../arm-none-eabi/lib/thumb\libg.a(lib_a-wctomb_r.o)
 .text          0x00000000        0x0 c:/code/devkitpro/devkitarm/bin/../lib/gcc/arm-none-eabi/6.3.0/../../../../arm-none-eabi/lib/thumb\libg.a(lib_a-wsetup.o)
 .data          0x00000000        0x0 c:/code/devkitpro/devkitarm/bin/../lib/gcc/arm-none-eabi/6.3.0/../../../../arm-none-eabi/lib/thumb\libg.a(lib_a-wsetup.o)
 .bss           0x00000000        0x0 c:/code/devkitpro/devkitarm/bin/../lib/gcc/arm-none-eabi/6.3.0/../../../../arm-none-eabi/lib/thumb\libg.a(lib_a-wsetup.o)
 .text          0x00000000        0x0 c:/code/devkitpro/devkitarm/bin/../lib/gcc/arm-none-eabi/6.3.0/../../../../arm-none-eabi/lib/thumb\libg.a(lib_a-ctype_.o)
 .data          0x00000000        0x0 c:/code/devkitpro/devkitarm/bin/../lib/gcc/arm-none-eabi/6.3.0/../../../../arm-none-eabi/lib/thumb\libg.a(lib_a-ctype_.o)
 .bss           0x00000000        0x0 c:/code/devkitpro/devkitarm/bin/../lib/gcc/arm-none-eabi/6.3.0/../../../../arm-none-eabi/lib/thumb\libg.a(lib_a-ctype_.o)
 .text.__set_ctype
                0x00000000        0xc c:/code/devkitpro/devkitarm/bin/../lib/gcc/arm-none-eabi/6.3.0/../../../../arm-none-eabi/lib/thumb\libg.a(lib_a-ctype_.o)
 .text          0x00000000        0x0 c:/code/devkitpro/devkitarm/bin/../lib/gcc/arm-none-eabi/6.3.0/../../../../arm-none-eabi/lib/thumb\libg.a(lib_a-div.o)
 .data          0x00000000        0x0 c:/code/devkitpro/devkitarm/bin/../lib/gcc/arm-none-eabi/6.3.0/../../../../arm-none-eabi/lib/thumb\libg.a(lib_a-div.o)
 .bss           0x00000000        0x0 c:/code/devkitpro/devkitarm/bin/../lib/gcc/arm-none-eabi/6.3.0/../../../../arm-none-eabi/lib/thumb\libg.a(lib_a-div.o)
 .text          0x00000000        0x0 c:/code/devkitpro/devkitarm/bin/../lib/gcc/arm-none-eabi/6.3.0/../../../../arm-none-eabi/lib/thumb\libg.a(lib_a-dtoa.o)
 .data          0x00000000        0x0 c:/code/devkitpro/devkitarm/bin/../lib/gcc/arm-none-eabi/6.3.0/../../../../arm-none-eabi/lib/thumb\libg.a(lib_a-dtoa.o)
 .bss           0x00000000        0x0 c:/code/devkitpro/devkitarm/bin/../lib/gcc/arm-none-eabi/6.3.0/../../../../arm-none-eabi/lib/thumb\libg.a(lib_a-dtoa.o)
 .text          0x00000000        0x0 c:/code/devkitpro/devkitarm/bin/../lib/gcc/arm-none-eabi/6.3.0/../../../../arm-none-eabi/lib/thumb\libg.a(lib_a-flags.o)
 .data          0x00000000        0x0 c:/code/devkitpro/devkitarm/bin/../lib/gcc/arm-none-eabi/6.3.0/../../../../arm-none-eabi/lib/thumb\libg.a(lib_a-flags.o)
 .bss           0x00000000        0x0 c:/code/devkitpro/devkitarm/bin/../lib/gcc/arm-none-eabi/6.3.0/../../../../arm-none-eabi/lib/thumb\libg.a(lib_a-flags.o)
 .text          0x00000000        0x0 c:/code/devkitpro/devkitarm/bin/../lib/gcc/arm-none-eabi/6.3.0/../../../../arm-none-eabi/lib/thumb\libg.a(lib_a-fvwrite.o)
 .data          0x00000000        0x0 c:/code/devkitpro/devkitarm/bin/../lib/gcc/arm-none-eabi/6.3.0/../../../../arm-none-eabi/lib/thumb\libg.a(lib_a-fvwrite.o)
 .bss           0x00000000        0x0 c:/code/devkitpro/devkitarm/bin/../lib/gcc/arm-none-eabi/6.3.0/../../../../arm-none-eabi/lib/thumb\libg.a(lib_a-fvwrite.o)
 .text          0x00000000        0x0 c:/code/devkitpro/devkitarm/bin/../lib/gcc/arm-none-eabi/6.3.0/../../../../arm-none-eabi/lib/thumb\libg.a(lib_a-getenv_r.o)
 .data          0x00000000        0x0 c:/code/devkitpro/devkitarm/bin/../lib/gcc/arm-none-eabi/6.3.0/../../../../arm-none-eabi/lib/thumb\libg.a(lib_a-getenv_r.o)
 .bss           0x00000000        0x0 c:/code/devkitpro/devkitarm/bin/../lib/gcc/arm-none-eabi/6.3.0/../../../../arm-none-eabi/lib/thumb\libg.a(lib_a-getenv_r.o)
 .text          0x00000000        0x0 c:/code/devkitpro/devkitarm/bin/../lib/gcc/arm-none-eabi/6.3.0/../../../../arm-none-eabi/lib/thumb\libg.a(lib_a-gettzinfo.o)
 .data          0x00000000        0x0 c:/code/devkitpro/devkitarm/bin/../lib/gcc/arm-none-eabi/6.3.0/../../../../arm-none-eabi/lib/thumb\libg.a(lib_a-gettzinfo.o)
 .bss           0x00000000        0x0 c:/code/devkitpro/devkitarm/bin/../lib/gcc/arm-none-eabi/6.3.0/../../../../arm-none-eabi/lib/thumb\libg.a(lib_a-gettzinfo.o)
 .text          0x00000000        0x0 c:/code/devkitpro/devkitarm/bin/../lib/gcc/arm-none-eabi/6.3.0/../../../../arm-none-eabi/lib/thumb\libg.a(lib_a-gmtime_r.o)
 .data          0x00000000        0x0 c:/code/devkitpro/devkitarm/bin/../lib/gcc/arm-none-eabi/6.3.0/../../../../arm-none-eabi/lib/thumb\libg.a(lib_a-gmtime_r.o)
 .bss           0x00000000        0x0 c:/code/devkitpro/devkitarm/bin/../lib/gcc/arm-none-eabi/6.3.0/../../../../arm-none-eabi/lib/thumb\libg.a(lib_a-gmtime_r.o)
 .text          0x00000000        0x0 c:/code/devkitpro/devkitarm/bin/../lib/gcc/arm-none-eabi/6.3.0/../../../../arm-none-eabi/lib/thumb\libg.a(lib_a-iswspace.o)
 .data          0x00000000        0x0 c:/code/devkitpro/devkitarm/bin/../lib/gcc/arm-none-eabi/6.3.0/../../../../arm-none-eabi/lib/thumb\libg.a(lib_a-iswspace.o)
 .bss           0x00000000        0x0 c:/code/devkitpro/devkitarm/bin/../lib/gcc/arm-none-eabi/6.3.0/../../../../arm-none-eabi/lib/thumb\libg.a(lib_a-iswspace.o)
 .text          0x00000000        0x0 c:/code/devkitpro/devkitarm/bin/../lib/gcc/arm-none-eabi/6.3.0/../../../../arm-none-eabi/lib/thumb\libg.a(lib_a-jp2uc.o)
 .data          0x00000000        0x0 c:/code/devkitpro/devkitarm/bin/../lib/gcc/arm-none-eabi/6.3.0/../../../../arm-none-eabi/lib/thumb\libg.a(lib_a-jp2uc.o)
 .bss           0x00000000        0x0 c:/code/devkitpro/devkitarm/bin/../lib/gcc/arm-none-eabi/6.3.0/../../../../arm-none-eabi/lib/thumb\libg.a(lib_a-jp2uc.o)
 .text          0x00000000        0x0 c:/code/devkitpro/devkitarm/bin/../lib/gcc/arm-none-eabi/6.3.0/../../../../arm-none-eabi/lib/thumb\libg.a(lib_a-localeconv.o)
 .data          0x00000000        0x0 c:/code/devkitpro/devkitarm/bin/../lib/gcc/arm-none-eabi/6.3.0/../../../../arm-none-eabi/lib/thumb\libg.a(lib_a-localeconv.o)
 .bss           0x00000000        0x0 c:/code/devkitpro/devkitarm/bin/../lib/gcc/arm-none-eabi/6.3.0/../../../../arm-none-eabi/lib/thumb\libg.a(lib_a-localeconv.o)
 .text.__localeconv_l
                0x00000000        0x4 c:/code/devkitpro/devkitarm/bin/../lib/gcc/arm-none-eabi/6.3.0/../../../../arm-none-eabi/lib/thumb\libg.a(lib_a-localeconv.o)
 .text.localeconv
                0x00000000       0x1c c:/code/devkitpro/devkitarm/bin/../lib/gcc/arm-none-eabi/6.3.0/../../../../arm-none-eabi/lib/thumb\libg.a(lib_a-localeconv.o)
 .text          0x00000000        0x0 c:/code/devkitpro/devkitarm/bin/../lib/gcc/arm-none-eabi/6.3.0/../../../../arm-none-eabi/lib/thumb\libg.a(lib_a-mbsnrtowcs.o)
 .data          0x00000000        0x0 c:/code/devkitpro/devkitarm/bin/../lib/gcc/arm-none-eabi/6.3.0/../../../../arm-none-eabi/lib/thumb\libg.a(lib_a-mbsnrtowcs.o)
 .bss           0x00000000        0x0 c:/code/devkitpro/devkitarm/bin/../lib/gcc/arm-none-eabi/6.3.0/../../../../arm-none-eabi/lib/thumb\libg.a(lib_a-mbsnrtowcs.o)
 .text.mbsnrtowcs
                0x00000000       0x28 c:/code/devkitpro/devkitarm/bin/../lib/gcc/arm-none-eabi/6.3.0/../../../../arm-none-eabi/lib/thumb\libg.a(lib_a-mbsnrtowcs.o)
 .text          0x00000000        0x0 c:/code/devkitpro/devkitarm/bin/../lib/gcc/arm-none-eabi/6.3.0/../../../../arm-none-eabi/lib/thumb\libg.a(lib_a-memchr-stub.o)
 .data          0x00000000        0x0 c:/code/devkitpro/devkitarm/bin/../lib/gcc/arm-none-eabi/6.3.0/../../../../arm-none-eabi/lib/thumb\libg.a(lib_a-memchr-stub.o)
 .bss           0x00000000        0x0 c:/code/devkitpro/devkitarm/bin/../lib/gcc/arm-none-eabi/6.3.0/../../../../arm-none-eabi/lib/thumb\libg.a(lib_a-memchr-stub.o)
 .text          0x00000000        0x0 c:/code/devkitpro/devkitarm/bin/../lib/gcc/arm-none-eabi/6.3.0/../../../../arm-none-eabi/lib/thumb\libg.a(lib_a-mprec.o)
 .data          0x00000000        0x0 c:/code/devkitpro/devkitarm/bin/../lib/gcc/arm-none-eabi/6.3.0/../../../../arm-none-eabi/lib/thumb\libg.a(lib_a-mprec.o)
 .bss           0x00000000        0x0 c:/code/devkitpro/devkitarm/bin/../lib/gcc/arm-none-eabi/6.3.0/../../../../arm-none-eabi/lib/thumb\libg.a(lib_a-mprec.o)
 .text.__s2b    0x00000000       0x98 c:/code/devkitpro/devkitarm/bin/../lib/gcc/arm-none-eabi/6.3.0/../../../../arm-none-eabi/lib/thumb\libg.a(lib_a-mprec.o)
 .text.__ulp    0x00000000       0x50 c:/code/devkitpro/devkitarm/bin/../lib/gcc/arm-none-eabi/6.3.0/../../../../arm-none-eabi/lib/thumb\libg.a(lib_a-mprec.o)
 .text.__b2d    0x00000000       0xdc c:/code/devkitpro/devkitarm/bin/../lib/gcc/arm-none-eabi/6.3.0/../../../../arm-none-eabi/lib/thumb\libg.a(lib_a-mprec.o)
 .text.__ratio  0x00000000       0x78 c:/code/devkitpro/devkitarm/bin/../lib/gcc/arm-none-eabi/6.3.0/../../../../arm-none-eabi/lib/thumb\libg.a(lib_a-mprec.o)
 .text._mprec_log10
                0x00000000       0x38 c:/code/devkitpro/devkitarm/bin/../lib/gcc/arm-none-eabi/6.3.0/../../../../arm-none-eabi/lib/thumb\libg.a(lib_a-mprec.o)
 .text.__copybits
                0x00000000       0x44 c:/code/devkitpro/devkitarm/bin/../lib/gcc/arm-none-eabi/6.3.0/../../../../arm-none-eabi/lib/thumb\libg.a(lib_a-mprec.o)
 .text.__any_on
                0x00000000       0x64 c:/code/devkitpro/devkitarm/bin/../lib/gcc/arm-none-eabi/6.3.0/../../../../arm-none-eabi/lib/thumb\libg.a(lib_a-mprec.o)
 .rodata.__mprec_tinytens
                0x00000000       0x28 c:/code/devkitpro/devkitarm/bin/../lib/gcc/arm-none-eabi/6.3.0/../../../../arm-none-eabi/lib/thumb\libg.a(lib_a-mprec.o)
 .text          0x00000000        0x0 c:/code/devkitpro/devkitarm/bin/../lib/gcc/arm-none-eabi/6.3.0/../../../../arm-none-eabi/lib/thumb\libg.a(lib_a-sccl.o)
 .data          0x00000000        0x0 c:/code/devkitpro/devkitarm/bin/../lib/gcc/arm-none-eabi/6.3.0/../../../../arm-none-eabi/lib/thumb\libg.a(lib_a-sccl.o)
 .bss           0x00000000        0x0 c:/code/devkitpro/devkitarm/bin/../lib/gcc/arm-none-eabi/6.3.0/../../../../arm-none-eabi/lib/thumb\libg.a(lib_a-sccl.o)
 .text          0x00000000        0x0 c:/code/devkitpro/devkitarm/bin/../lib/gcc/arm-none-eabi/6.3.0/../../../../arm-none-eabi/lib/thumb\libg.a(lib_a-s_frexp.o)
 .data          0x00000000        0x0 c:/code/devkitpro/devkitarm/bin/../lib/gcc/arm-none-eabi/6.3.0/../../../../arm-none-eabi/lib/thumb\libg.a(lib_a-s_frexp.o)
 .bss           0x00000000        0x0 c:/code/devkitpro/devkitarm/bin/../lib/gcc/arm-none-eabi/6.3.0/../../../../arm-none-eabi/lib/thumb\libg.a(lib_a-s_frexp.o)
 .text          0x00000000        0x0 c:/code/devkitpro/devkitarm/bin/../lib/gcc/arm-none-eabi/6.3.0/../../../../arm-none-eabi/lib/thumb\libg.a(lib_a-strtoll.o)
 .data          0x00000000        0x0 c:/code/devkitpro/devkitarm/bin/../lib/gcc/arm-none-eabi/6.3.0/../../../../arm-none-eabi/lib/thumb\libg.a(lib_a-strtoll.o)
 .bss           0x00000000        0x0 c:/code/devkitpro/devkitarm/bin/../lib/gcc/arm-none-eabi/6.3.0/../../../../arm-none-eabi/lib/thumb\libg.a(lib_a-strtoll.o)
 .text.strtoll_l
                0x00000000       0x24 c:/code/devkitpro/devkitarm/bin/../lib/gcc/arm-none-eabi/6.3.0/../../../../arm-none-eabi/lib/thumb\libg.a(lib_a-strtoll.o)
 .text.strtoll  0x00000000       0x38 c:/code/devkitpro/devkitarm/bin/../lib/gcc/arm-none-eabi/6.3.0/../../../../arm-none-eabi/lib/thumb\libg.a(lib_a-strtoll.o)
 .text          0x00000000        0x0 c:/code/devkitpro/devkitarm/bin/../lib/gcc/arm-none-eabi/6.3.0/../../../../arm-none-eabi/lib/thumb\libg.a(lib_a-strtoull.o)
 .data          0x00000000        0x0 c:/code/devkitpro/devkitarm/bin/../lib/gcc/arm-none-eabi/6.3.0/../../../../arm-none-eabi/lib/thumb\libg.a(lib_a-strtoull.o)
 .bss           0x00000000        0x0 c:/code/devkitpro/devkitarm/bin/../lib/gcc/arm-none-eabi/6.3.0/../../../../arm-none-eabi/lib/thumb\libg.a(lib_a-strtoull.o)
 .text.strtoull_l
                0x00000000       0x24 c:/code/devkitpro/devkitarm/bin/../lib/gcc/arm-none-eabi/6.3.0/../../../../arm-none-eabi/lib/thumb\libg.a(lib_a-strtoull.o)
 .text.strtoull
                0x00000000       0x38 c:/code/devkitpro/devkitarm/bin/../lib/gcc/arm-none-eabi/6.3.0/../../../../arm-none-eabi/lib/thumb\libg.a(lib_a-strtoull.o)
 .text          0x00000000        0x0 c:/code/devkitpro/devkitarm/bin/../lib/gcc/arm-none-eabi/6.3.0/../../../../arm-none-eabi/lib/thumb\libg.a(lib_a-strtoul.o)
 .data          0x00000000        0x0 c:/code/devkitpro/devkitarm/bin/../lib/gcc/arm-none-eabi/6.3.0/../../../../arm-none-eabi/lib/thumb\libg.a(lib_a-strtoul.o)
 .bss           0x00000000        0x0 c:/code/devkitpro/devkitarm/bin/../lib/gcc/arm-none-eabi/6.3.0/../../../../arm-none-eabi/lib/thumb\libg.a(lib_a-strtoul.o)
 .text.strtoul_l
                0x00000000       0x24 c:/code/devkitpro/devkitarm/bin/../lib/gcc/arm-none-eabi/6.3.0/../../../../arm-none-eabi/lib/thumb\libg.a(lib_a-strtoul.o)
 .text          0x00000000        0x0 c:/code/devkitpro/devkitarm/bin/../lib/gcc/arm-none-eabi/6.3.0/../../../../arm-none-eabi/lib/thumb\libg.a(lib_a-svfiprintf.o)
 .data          0x00000000        0x0 c:/code/devkitpro/devkitarm/bin/../lib/gcc/arm-none-eabi/6.3.0/../../../../arm-none-eabi/lib/thumb\libg.a(lib_a-svfiprintf.o)
 .bss           0x00000000        0x0 c:/code/devkitpro/devkitarm/bin/../lib/gcc/arm-none-eabi/6.3.0/../../../../arm-none-eabi/lib/thumb\libg.a(lib_a-svfiprintf.o)
 .text.get_arg  0x00000000      0xc50 c:/code/devkitpro/devkitarm/bin/../lib/gcc/arm-none-eabi/6.3.0/../../../../arm-none-eabi/lib/thumb\libg.a(lib_a-svfiprintf.o)
 .rodata.get_arg
                0x00000000      0x938 c:/code/devkitpro/devkitarm/bin/../lib/gcc/arm-none-eabi/6.3.0/../../../../arm-none-eabi/lib/thumb\libg.a(lib_a-svfiprintf.o)
 .text._svfiprintf_r
                0x00000000     0x1bb0 c:/code/devkitpro/devkitarm/bin/../lib/gcc/arm-none-eabi/6.3.0/../../../../arm-none-eabi/lib/thumb\libg.a(lib_a-svfiprintf.o)
 .rodata._svfiprintf_r
                0x00000000      0x16c c:/code/devkitpro/devkitarm/bin/../lib/gcc/arm-none-eabi/6.3.0/../../../../arm-none-eabi/lib/thumb\libg.a(lib_a-svfiprintf.o)
 .rodata._svfiprintf_r.str1.4
                0x00000000       0x2f c:/code/devkitpro/devkitarm/bin/../lib/gcc/arm-none-eabi/6.3.0/../../../../arm-none-eabi/lib/thumb\libg.a(lib_a-svfiprintf.o)
 .rodata.blanks.7256
                0x00000000       0x10 c:/code/devkitpro/devkitarm/bin/../lib/gcc/arm-none-eabi/6.3.0/../../../../arm-none-eabi/lib/thumb\libg.a(lib_a-svfiprintf.o)
 .rodata.zeroes.7257
                0x00000000       0x10 c:/code/devkitpro/devkitarm/bin/../lib/gcc/arm-none-eabi/6.3.0/../../../../arm-none-eabi/lib/thumb\libg.a(lib_a-svfiprintf.o)
 .text          0x00000000        0x0 c:/code/devkitpro/devkitarm/bin/../lib/gcc/arm-none-eabi/6.3.0/../../../../arm-none-eabi/lib/thumb\libg.a(lib_a-wcsnrtombs.o)
 .data          0x00000000        0x0 c:/code/devkitpro/devkitarm/bin/../lib/gcc/arm-none-eabi/6.3.0/../../../../arm-none-eabi/lib/thumb\libg.a(lib_a-wcsnrtombs.o)
 .bss           0x00000000        0x0 c:/code/devkitpro/devkitarm/bin/../lib/gcc/arm-none-eabi/6.3.0/../../../../arm-none-eabi/lib/thumb\libg.a(lib_a-wcsnrtombs.o)
 .text.wcsnrtombs
                0x00000000       0x4c c:/code/devkitpro/devkitarm/bin/../lib/gcc/arm-none-eabi/6.3.0/../../../../arm-none-eabi/lib/thumb\libg.a(lib_a-wcsnrtombs.o)
 .text          0x00000000        0x0 c:/code/devkitpro/devkitarm/bin/../lib/gcc/arm-none-eabi/6.3.0/../../../../arm-none-eabi/lib/thumb\libg.a(lib_a-environ.o)
 .data          0x00000000        0x0 c:/code/devkitpro/devkitarm/bin/../lib/gcc/arm-none-eabi/6.3.0/../../../../arm-none-eabi/lib/thumb\libg.a(lib_a-environ.o)
 .bss           0x00000000        0x0 c:/code/devkitpro/devkitarm/bin/../lib/gcc/arm-none-eabi/6.3.0/../../../../arm-none-eabi/lib/thumb\libg.a(lib_a-environ.o)
 .text          0x00000000        0x0 c:/code/devkitpro/devkitarm/bin/../lib/gcc/arm-none-eabi/6.3.0/../../../../arm-none-eabi/lib/thumb\libg.a(lib_a-envlock.o)
 .data          0x00000000        0x0 c:/code/devkitpro/devkitarm/bin/../lib/gcc/arm-none-eabi/6.3.0/../../../../arm-none-eabi/lib/thumb\libg.a(lib_a-envlock.o)
 .bss           0x00000000        0x0 c:/code/devkitpro/devkitarm/bin/../lib/gcc/arm-none-eabi/6.3.0/../../../../arm-none-eabi/lib/thumb\libg.a(lib_a-envlock.o)
 .text          0x00000000        0x0 c:/code/devkitpro/devkitarm/bin/../lib/gcc/arm-none-eabi/6.3.0/../../../../arm-none-eabi/lib/thumb\libsysbase.a(iosupport.o)
 .data          0x00000000        0x0 c:/code/devkitpro/devkitarm/bin/../lib/gcc/arm-none-eabi/6.3.0/../../../../arm-none-eabi/lib/thumb\libsysbase.a(iosupport.o)
 .bss           0x00000000        0x0 c:/code/devkitpro/devkitarm/bin/../lib/gcc/arm-none-eabi/6.3.0/../../../../arm-none-eabi/lib/thumb\libsysbase.a(iosupport.o)
 .text.RemoveDevice
                0x00000000       0x24 c:/code/devkitpro/devkitarm/bin/../lib/gcc/arm-none-eabi/6.3.0/../../../../arm-none-eabi/lib/thumb\libsysbase.a(iosupport.o)
 .text          0x00000000        0x0 c:/code/devkitpro/devkitarm/bin/../lib/gcc/arm-none-eabi/6.3.0/../../../../arm-none-eabi/lib/thumb\libsysbase.a(close.o)
 .data          0x00000000        0x0 c:/code/devkitpro/devkitarm/bin/../lib/gcc/arm-none-eabi/6.3.0/../../../../arm-none-eabi/lib/thumb\libsysbase.a(close.o)
 .bss           0x00000000        0x0 c:/code/devkitpro/devkitarm/bin/../lib/gcc/arm-none-eabi/6.3.0/../../../../arm-none-eabi/lib/thumb\libsysbase.a(close.o)
 .text          0x00000000        0x0 c:/code/devkitpro/devkitarm/bin/../lib/gcc/arm-none-eabi/6.3.0/../../../../arm-none-eabi/lib/thumb\libsysbase.a(fstat.o)
 .data          0x00000000        0x0 c:/code/devkitpro/devkitarm/bin/../lib/gcc/arm-none-eabi/6.3.0/../../../../arm-none-eabi/lib/thumb\libsysbase.a(fstat.o)
 .bss           0x00000000        0x0 c:/code/devkitpro/devkitarm/bin/../lib/gcc/arm-none-eabi/6.3.0/../../../../arm-none-eabi/lib/thumb\libsysbase.a(fstat.o)
 .text          0x00000000        0x0 c:/code/devkitpro/devkitarm/bin/../lib/gcc/arm-none-eabi/6.3.0/../../../../arm-none-eabi/lib/thumb\libsysbase.a(gettod.o)
 .data          0x00000000        0x0 c:/code/devkitpro/devkitarm/bin/../lib/gcc/arm-none-eabi/6.3.0/../../../../arm-none-eabi/lib/thumb\libsysbase.a(gettod.o)
 .bss           0x00000000        0x0 c:/code/devkitpro/devkitarm/bin/../lib/gcc/arm-none-eabi/6.3.0/../../../../arm-none-eabi/lib/thumb\libsysbase.a(gettod.o)
 .text          0x00000000        0x0 c:/code/devkitpro/devkitarm/bin/../lib/gcc/arm-none-eabi/6.3.0/../../../../arm-none-eabi/lib/thumb\libsysbase.a(isatty.o)
 .data          0x00000000        0x0 c:/code/devkitpro/devkitarm/bin/../lib/gcc/arm-none-eabi/6.3.0/../../../../arm-none-eabi/lib/thumb\libsysbase.a(isatty.o)
 .bss           0x00000000        0x0 c:/code/devkitpro/devkitarm/bin/../lib/gcc/arm-none-eabi/6.3.0/../../../../arm-none-eabi/lib/thumb\libsysbase.a(isatty.o)
 .text          0x00000000        0x0 c:/code/devkitpro/devkitarm/bin/../lib/gcc/arm-none-eabi/6.3.0/../../../../arm-none-eabi/lib/thumb\libsysbase.a(lseek.o)
 .data          0x00000000        0x0 c:/code/devkitpro/devkitarm/bin/../lib/gcc/arm-none-eabi/6.3.0/../../../../arm-none-eabi/lib/thumb\libsysbase.a(lseek.o)
 .bss           0x00000000        0x0 c:/code/devkitpro/devkitarm/bin/../lib/gcc/arm-none-eabi/6.3.0/../../../../arm-none-eabi/lib/thumb\libsysbase.a(lseek.o)
 .text          0x00000000        0x0 c:/code/devkitpro/devkitarm/bin/../lib/gcc/arm-none-eabi/6.3.0/../../../../arm-none-eabi/lib/thumb\libsysbase.a(open.o)
 .data          0x00000000        0x0 c:/code/devkitpro/devkitarm/bin/../lib/gcc/arm-none-eabi/6.3.0/../../../../arm-none-eabi/lib/thumb\libsysbase.a(open.o)
 .bss           0x00000000        0x0 c:/code/devkitpro/devkitarm/bin/../lib/gcc/arm-none-eabi/6.3.0/../../../../arm-none-eabi/lib/thumb\libsysbase.a(open.o)
 .text          0x00000000        0x0 c:/code/devkitpro/devkitarm/bin/../lib/gcc/arm-none-eabi/6.3.0/../../../../arm-none-eabi/lib/thumb\libsysbase.a(read.o)
 .data          0x00000000        0x0 c:/code/devkitpro/devkitarm/bin/../lib/gcc/arm-none-eabi/6.3.0/../../../../arm-none-eabi/lib/thumb\libsysbase.a(read.o)
 .bss           0x00000000        0x0 c:/code/devkitpro/devkitarm/bin/../lib/gcc/arm-none-eabi/6.3.0/../../../../arm-none-eabi/lib/thumb\libsysbase.a(read.o)
 .text          0x00000000        0x0 c:/code/devkitpro/devkitarm/bin/../lib/gcc/arm-none-eabi/6.3.0/../../../../arm-none-eabi/lib/thumb\libsysbase.a(sbrk.o)
 .data          0x00000000        0x0 c:/code/devkitpro/devkitarm/bin/../lib/gcc/arm-none-eabi/6.3.0/../../../../arm-none-eabi/lib/thumb\libsysbase.a(sbrk.o)
 .bss           0x00000000        0x0 c:/code/devkitpro/devkitarm/bin/../lib/gcc/arm-none-eabi/6.3.0/../../../../arm-none-eabi/lib/thumb\libsysbase.a(sbrk.o)
 .text          0x00000000        0x0 c:/code/devkitpro/devkitarm/bin/../lib/gcc/arm-none-eabi/6.3.0/../../../../arm-none-eabi/lib/thumb\libsysbase.a(write.o)
 .data          0x00000000        0x0 c:/code/devkitpro/devkitarm/bin/../lib/gcc/arm-none-eabi/6.3.0/../../../../arm-none-eabi/lib/thumb\libsysbase.a(write.o)
 .bss           0x00000000        0x0 c:/code/devkitpro/devkitarm/bin/../lib/gcc/arm-none-eabi/6.3.0/../../../../arm-none-eabi/lib/thumb\libsysbase.a(write.o)
 .text          0x00000000        0x0 c:/code/devkitpro/devkitarm/bin/../lib/gcc/arm-none-eabi/6.3.0/../../../../arm-none-eabi/lib/thumb\libsysbase.a(malloc_vars.o)
 .data          0x00000000        0x0 c:/code/devkitpro/devkitarm/bin/../lib/gcc/arm-none-eabi/6.3.0/../../../../arm-none-eabi/lib/thumb\libsysbase.a(malloc_vars.o)
 .bss           0x00000000        0x0 c:/code/devkitpro/devkitarm/bin/../lib/gcc/arm-none-eabi/6.3.0/../../../../arm-none-eabi/lib/thumb\libsysbase.a(malloc_vars.o)
 .text          0x00000000        0x0 c:/code/devkitpro/devkitarm/bin/../lib/gcc/arm-none-eabi/6.3.0/../../../../arm-none-eabi/lib/thumb\libsysbase.a(chdir.o)
 .data          0x00000000        0x0 c:/code/devkitpro/devkitarm/bin/../lib/gcc/arm-none-eabi/6.3.0/../../../../arm-none-eabi/lib/thumb\libsysbase.a(chdir.o)
 .bss           0x00000000        0x0 c:/code/devkitpro/devkitarm/bin/../lib/gcc/arm-none-eabi/6.3.0/../../../../arm-none-eabi/lib/thumb\libsysbase.a(chdir.o)
 .rodata.DIRECTORY_SEPARATOR
                0x00000000        0x2 c:/code/devkitpro/devkitarm/bin/../lib/gcc/arm-none-eabi/6.3.0/../../../../arm-none-eabi/lib/thumb\libsysbase.a(chdir.o)
 .rodata.DIRECTORY_THIS
                0x00000000        0x2 c:/code/devkitpro/devkitarm/bin/../lib/gcc/arm-none-eabi/6.3.0/../../../../arm-none-eabi/lib/thumb\libsysbase.a(chdir.o)
 .text          0x00000000        0x0 c:/code/devkitpro/devkitarm/bin/../lib/gcc/arm-none-eabi/6.3.0/../../../../arm-none-eabi/lib/thumb\libsysbase.a(build_argv.o)
 .data          0x00000000        0x0 c:/code/devkitpro/devkitarm/bin/../lib/gcc/arm-none-eabi/6.3.0/../../../../arm-none-eabi/lib/thumb\libsysbase.a(build_argv.o)
 .bss           0x00000000        0x0 c:/code/devkitpro/devkitarm/bin/../lib/gcc/arm-none-eabi/6.3.0/../../../../arm-none-eabi/lib/thumb\libsysbase.a(build_argv.o)
 .text          0x00000000        0x0 c:/code/devkitpro/devkitarm/bin/../lib/gcc/arm-none-eabi/6.3.0/../../../../arm-none-eabi/lib/thumb\libsysbase.a(flock.o)
 .data          0x00000000        0x0 c:/code/devkitpro/devkitarm/bin/../lib/gcc/arm-none-eabi/6.3.0/../../../../arm-none-eabi/lib/thumb\libsysbase.a(flock.o)
 .bss           0x00000000        0x0 c:/code/devkitpro/devkitarm/bin/../lib/gcc/arm-none-eabi/6.3.0/../../../../arm-none-eabi/lib/thumb\libsysbase.a(flock.o)
 .text          0x00000000        0x0 c:/code/devkitpro/devkitarm/bin/../lib/gcc/arm-none-eabi/6.3.0/../../../../arm-none-eabi/lib/thumb\libsysbase.a(syscall_support.o)
 .data          0x00000000        0x0 c:/code/devkitpro/devkitarm/bin/../lib/gcc/arm-none-eabi/6.3.0/../../../../arm-none-eabi/lib/thumb\libsysbase.a(syscall_support.o)
 .bss           0x00000000        0x0 c:/code/devkitpro/devkitarm/bin/../lib/gcc/arm-none-eabi/6.3.0/../../../../arm-none-eabi/lib/thumb\libsysbase.a(syscall_support.o)
 .text.__libc_lock_init
                0x00000000       0x1c c:/code/devkitpro/devkitarm/bin/../lib/gcc/arm-none-eabi/6.3.0/../../../../arm-none-eabi/lib/thumb\libsysbase.a(syscall_support.o)
 .text.__libc_lock_try_acquire
                0x00000000       0x24 c:/code/devkitpro/devkitarm/bin/../lib/gcc/arm-none-eabi/6.3.0/../../../../arm-none-eabi/lib/thumb\libsysbase.a(syscall_support.o)
 .text.__libc_lock_close
                0x00000000       0x1c c:/code/devkitpro/devkitarm/bin/../lib/gcc/arm-none-eabi/6.3.0/../../../../arm-none-eabi/lib/thumb\libsysbase.a(syscall_support.o)
 .text.__libc_lock_try_acquire_recursive
                0x00000000       0x24 c:/code/devkitpro/devkitarm/bin/../lib/gcc/arm-none-eabi/6.3.0/../../../../arm-none-eabi/lib/thumb\libsysbase.a(syscall_support.o)
 .text          0x00000000        0x0 c:/code/devkitpro/devkitarm/bin/../lib/gcc/arm-none-eabi/6.3.0/../../../../arm-none-eabi/lib/thumb\libsysbase.a(handle_manager.o)
 .data          0x00000000        0x0 c:/code/devkitpro/devkitarm/bin/../lib/gcc/arm-none-eabi/6.3.0/../../../../arm-none-eabi/lib/thumb\libsysbase.a(handle_manager.o)
 .bss           0x00000000        0x0 c:/code/devkitpro/devkitarm/bin/../lib/gcc/arm-none-eabi/6.3.0/../../../../arm-none-eabi/lib/thumb\libsysbase.a(handle_manager.o)
 .text.dup      0x00000000       0x68 c:/code/devkitpro/devkitarm/bin/../lib/gcc/arm-none-eabi/6.3.0/../../../../arm-none-eabi/lib/thumb\libsysbase.a(handle_manager.o)
 .text.dup2     0x00000000       0xa8 c:/code/devkitpro/devkitarm/bin/../lib/gcc/arm-none-eabi/6.3.0/../../../../arm-none-eabi/lib/thumb\libsysbase.a(handle_manager.o)
 .text          0x00000000        0x0 c:/code/devkitpro/devkitarm/bin/../lib/gcc/arm-none-eabi/6.3.0/../../../../arm-none-eabi/lib/thumb\libsysbase.a(getreent.o)
 .data          0x00000000        0x0 c:/code/devkitpro/devkitarm/bin/../lib/gcc/arm-none-eabi/6.3.0/../../../../arm-none-eabi/lib/thumb\libsysbase.a(getreent.o)
 .bss           0x00000000        0x0 c:/code/devkitpro/devkitarm/bin/../lib/gcc/arm-none-eabi/6.3.0/../../../../arm-none-eabi/lib/thumb\libsysbase.a(getreent.o)
 .data          0x00000000        0x0 c:/code/devkitpro/devkitarm/bin/../lib/gcc/arm-none-eabi/6.3.0/thumb\libgcc.a(_arm_addsubdf3.o)
 .bss           0x00000000        0x0 c:/code/devkitpro/devkitarm/bin/../lib/gcc/arm-none-eabi/6.3.0/thumb\libgcc.a(_arm_addsubdf3.o)
 .data          0x00000000        0x0 c:/code/devkitpro/devkitarm/bin/../lib/gcc/arm-none-eabi/6.3.0/thumb\libgcc.a(_arm_muldivdf3.o)
 .bss           0x00000000        0x0 c:/code/devkitpro/devkitarm/bin/../lib/gcc/arm-none-eabi/6.3.0/thumb\libgcc.a(_arm_muldivdf3.o)
 .data          0x00000000        0x0 c:/code/devkitpro/devkitarm/bin/../lib/gcc/arm-none-eabi/6.3.0/thumb\libgcc.a(_arm_cmpdf2.o)
 .bss           0x00000000        0x0 c:/code/devkitpro/devkitarm/bin/../lib/gcc/arm-none-eabi/6.3.0/thumb\libgcc.a(_arm_cmpdf2.o)
 .data          0x00000000        0x0 c:/code/devkitpro/devkitarm/bin/../lib/gcc/arm-none-eabi/6.3.0/thumb\libgcc.a(_arm_unorddf2.o)
 .bss           0x00000000        0x0 c:/code/devkitpro/devkitarm/bin/../lib/gcc/arm-none-eabi/6.3.0/thumb\libgcc.a(_arm_unorddf2.o)
 .data          0x00000000        0x0 c:/code/devkitpro/devkitarm/bin/../lib/gcc/arm-none-eabi/6.3.0/thumb\libgcc.a(_arm_fixdfsi.o)
 .bss           0x00000000        0x0 c:/code/devkitpro/devkitarm/bin/../lib/gcc/arm-none-eabi/6.3.0/thumb\libgcc.a(_arm_fixdfsi.o)
 .data          0x00000000        0x0 c:/code/devkitpro/devkitarm/bin/../lib/gcc/arm-none-eabi/6.3.0/thumb\libgcc.a(_aeabi_uldivmod.o)
 .bss           0x00000000        0x0 c:/code/devkitpro/devkitarm/bin/../lib/gcc/arm-none-eabi/6.3.0/thumb\libgcc.a(_aeabi_uldivmod.o)
 .text          0x00000000        0x0 c:/code/devkitpro/devkitarm/bin/../lib/gcc/arm-none-eabi/6.3.0/../../../../arm-none-eabi/lib/thumb\libg.a(lib_a-errno.o)
 .data          0x00000000        0x0 c:/code/devkitpro/devkitarm/bin/../lib/gcc/arm-none-eabi/6.3.0/../../../../arm-none-eabi/lib/thumb\libg.a(lib_a-errno.o)
 .bss           0x00000000        0x0 c:/code/devkitpro/devkitarm/bin/../lib/gcc/arm-none-eabi/6.3.0/../../../../arm-none-eabi/lib/thumb\libg.a(lib_a-errno.o)
 .text          0x00000000        0x0 c:/code/devkitpro/devkitarm/bin/../lib/gcc/arm-none-eabi/6.3.0/thumb/crtend.o
 .data          0x00000000        0x0 c:/code/devkitpro/devkitarm/bin/../lib/gcc/arm-none-eabi/6.3.0/thumb/crtend.o
 .bss           0x00000000        0x0 c:/code/devkitpro/devkitarm/bin/../lib/gcc/arm-none-eabi/6.3.0/thumb/crtend.o
 .text          0x00000000        0x0 c:/code/devkitpro/devkitarm/bin/../lib/gcc/arm-none-eabi/6.3.0/thumb/crtn.o
 .data          0x00000000        0x0 c:/code/devkitpro/devkitarm/bin/../lib/gcc/arm-none-eabi/6.3.0/thumb/crtn.o
 .bss           0x00000000        0x0 c:/code/devkitpro/devkitarm/bin/../lib/gcc/arm-none-eabi/6.3.0/thumb/crtn.o

Memory Configuration

Name             Origin             Length             Attributes
ewram            0x02000000         0x00380000
dtcm             0x0b000000         0x00004000
vectors          0x01000000         0x00000100
itcm             0x01000100         0x00007f00
*default*        0x00000000         0xffffffff

Linker script and memory map

                0x02380000                __ewram_end = (ORIGIN (ewram) + LENGTH (ewram))
                0x02380000                __eheap_end = (ORIGIN (ewram) + LENGTH (ewram))
                0x0b004000                __dtcm_top = (ORIGIN (dtcm) + LENGTH (dtcm))
                0x0b003ff8                __irq_flags = (__dtcm_top - 0x8)
                0x0b003ffc                __irq_vector = (__dtcm_top - 0x4)
                0x0b003f00                __sp_svc = (__dtcm_top - 0x100)
                0x0b003e00                __sp_irq = (__sp_svc - 0x100)
                0x0b003d00                __sp_usr = (__sp_irq - 0x100)

.secure         0x02000000      0x800
 *(.secure)
 .secure        0x02000000      0x800 c:/code/devkitPro/libnds/lib\libnds9.a(securearea.o)
                0x02000000                __secure_area__

.crt0           0x02000800      0x300
                0x02000800                __text_start = .
 *(.crt0)
 .crt0          0x02000800      0x300 c:/code/devkitpro/devkitarm/bin/../lib/gcc/arm-none-eabi/6.3.0/../../../../arm-none-eabi/lib/thumb/ds_arm9_crt0.o
                0x02000800                _start
                0x02000b00                . = ALIGN (0x4)

.plt
 *(.plt)

.init           0x02000b00        0xc
 *(SORT(.init))
 .init          0x02000b00        0x4 c:/code/devkitpro/devkitarm/bin/../lib/gcc/arm-none-eabi/6.3.0/thumb/crti.o
                0x02000b00                _init
 .init          0x02000b04        0x8 c:/code/devkitpro/devkitarm/bin/../lib/gcc/arm-none-eabi/6.3.0/thumb/crtn.o

.text           0x02000b40    0x216a8
 *(EXCLUDE_FILE(*.twl* *.vectors* *.itcm*) .text)
 .text          0x02000b40      0x884 d:/Work/NDS/projects/NFlib/nflib/examples/3dsprites/animation/nflib/lib\libnflib.a(nf_2d.o)
                0x02000b40                NF_Set2D
                0x02000ba4                NF_ShowBg
                0x02000c1c                NF_HideBg
                0x02000cbc                NF_ScrollBg
                0x0200102c                NF_MoveSprite
                0x0200104c                NF_SpriteLayer
                0x02001068                NF_ShowSprite
                0x02001088                NF_HflipSprite
                0x020010a4                NF_GetSpriteHflip
                0x020010c0                NF_VflipSprite
                0x020010dc                NF_GetSpriteVflip
                0x020010f8                NF_SpriteFrame
                0x020011c0                NF_EnableSpriteRotScale
                0x02001258                NF_DisableSpriteRotScale
                0x020012cc                NF_SpriteRotScale
 .text          0x020013c4      0x2a0 d:/Work/NDS/projects/NFlib/nflib/examples/3dsprites/animation/nflib/lib\libnflib.a(nf_3d.o)
                0x020013c4                NF_Set3D
                0x0200141c                NF_InitOpenGL
                0x02001614                NF_GetTextureSize
 .text          0x02001664      0x490 d:/Work/NDS/projects/NFlib/nflib/examples/3dsprites/animation/nflib/lib\libnflib.a(nf_basic.o)
                0x02001664                NF_Error
                0x02001910                NF_SetRootFolder
                0x02001a68                NF_DmaMemCopy
                0x02001ae4                NF_GetLanguage
 .text          0x02001af4     0x1424 d:/Work/NDS/projects/NFlib/nflib/examples/3dsprites/animation/nflib/lib\libnflib.a(nf_sprite256.o)
                0x02001af4                NF_InitSpriteBuffers
                0x02001b40                NF_ResetSpriteBuffers
                0x02001bb0                NF_InitSpriteSys
                0x02001de4                NF_LoadSpriteGfx
                0x02001f10                NF_UnloadSpriteGfx
                0x02001f78                NF_LoadSpritePal
                0x02002074                NF_UnloadSpritePal
                0x020020c4                NF_VramSpriteGfx
                0x02002414                NF_VramSpriteGfxDefrag
                0x0200262c                NF_FreeSpriteGfx
                0x02002720                NF_VramSpritePal
                0x020027f8                NF_CreateSprite
                0x02002ba0                NF_DeleteSprite
                0x02002c40                NF_SpriteOamSet
                0x02002d04                NF_SpriteSetPalColor
                0x02002da0                NF_SpriteEditPalColor
                0x02002e18                NF_SpriteUpdatePalette
                0x02002eac                NF_SpriteGetPalColor
 .text          0x02002f18     0x1150 d:/Work/NDS/projects/NFlib/nflib/examples/3dsprites/animation/nflib/lib\libnflib.a(nf_sprite3d.o)
                0x02002f18                NF_Init3dSpriteSys
                0x02003040                NF_Vram3dSpriteGfx
                0x020032fc                NF_Vram3dSpriteGfxDefrag
                0x020034b0                NF_Free3dSpriteGfx
                0x0200355c                NF_Vram3dSpritePal
                0x020035ec                NF_Create3dSprite
                0x02003738                NF_Delete3dSprite
                0x0200382c                NF_Sort3dSprites
                0x020038a4                NF_Set3dSpritePriority
                0x02003978                NF_Swap3dSpritePriority
                0x020039a4                NF_Move3dSprite
                0x020039b4                NF_Show3dSprite
                0x020039c4                NF_Set3dSpriteFrame
                0x02003a60                NF_Draw3dSprites
                0x02003cc8                NF_Update3dSpritesGfx
                0x02003d70                NF_Rotate3dSprite
                0x02003dfc                NF_Scale3dSprite
                0x02003e38                NF_Blend3dSprite
                0x02003e6c                NF_3dSpritesLayer
                0x02003f1c                NF_3dSpriteEditPalColor
                0x02003f80                NF_3dSpriteUpdatePalette
                0x02003fd8                NF_3dSpriteGetPalColor
                0x02004038                NF_3dSpriteSetDeep
 .text          0x02004068     0x1aa8 d:/Work/NDS/projects/NFlib/nflib/examples/3dsprites/animation/nflib/lib\libnflib.a(nf_tiledbg.o)
                0x02004068                NF_InitTiledBgBuffers
                0x02004104                NF_ResetTiledBgBuffers
                0x02004160                NF_InitTiledBgSys
                0x02004290                NF_LoadTiledBg
                0x02004550                NF_LoadTilesForBg
                0x02004814                NF_UnloadTiledBg
                0x020048e4                NF_DeleteTiledBg
                0x02004aac                NF_CreateTiledBg
                0x020050c8                NF_GetTileMapAddress
                0x0200517c                NF_GetTileOfMap
                0x020051b4                NF_SetTileOfMap
                0x020051f8                NF_UpdateVramMap
                0x02005314                NF_BgSetPalColor
                0x020053c4                NF_BgEditPalColor
                0x02005460                NF_BgUpdatePalette
                0x02005524                NF_BgGetPalColor
                0x020055bc                NF_GetTilePal
                0x020055f0                NF_SetTilePal
                0x02005634                NF_LoadExBgPal
                0x02005728                NF_UnloadExBgPal
                0x02005778                NF_VramExBgPal
                0x02005830                NF_SetExBgPal
                0x020058f4                NF_SetTileHflip
                0x02005930                NF_SetTileVflip
                0x0200596c                NF_RotateTileGfx
 *fill*         0x02005b10       0x30 ff
 .text          0x02005b40     0x4000 c:/code/devkitPro/libnds/lib\libnds9.a(dldi_stub.o)
                0x02005b40                _io_dldi_stub
 .text          0x02009b40      0x11c c:/code/devkitpro/devkitarm/bin/../lib/gcc/arm-none-eabi/6.3.0/thumb\libgcc.a(_udivsi3.o)
                0x02009b40                __aeabi_uidiv
                0x02009b40                __udivsi3
                0x02009c3c                __aeabi_uidivmod
 .text          0x02009c5c      0x150 c:/code/devkitpro/devkitarm/bin/../lib/gcc/arm-none-eabi/6.3.0/thumb\libgcc.a(_divsi3.o)
                0x02009c5c                __divsi3
                0x02009c5c                __aeabi_idiv
                0x02009d8c                __aeabi_idivmod
 .text          0x02009dac        0x4 c:/code/devkitpro/devkitarm/bin/../lib/gcc/arm-none-eabi/6.3.0/thumb\libgcc.a(_dvmd_tls.o)
                0x02009dac                __aeabi_idiv0
                0x02009dac                __aeabi_ldiv0
 .text          0x02009db0       0xd4 c:/code/devkitpro/devkitarm/bin/../lib/gcc/arm-none-eabi/6.3.0/thumb\libgcc.a(_aeabi_ldivmod.o)
                0x02009db0                __aeabi_ldivmod
 .text          0x02009e84       0x28 c:/code/devkitpro/devkitarm/bin/../lib/gcc/arm-none-eabi/6.3.0/thumb\libgcc.a(_clzdi2.o)
                0x02009e84                __clzdi2
 .text          0x02009eac       0x48 c:/code/devkitpro/devkitarm/bin/../lib/gcc/arm-none-eabi/6.3.0/thumb\libgcc.a(_clzsi2.o)
                0x02009eac                __clzsi2
 .text          0x02009ef4      0x224 c:/code/devkitpro/devkitarm/bin/../lib/gcc/arm-none-eabi/6.3.0/../../../../arm-none-eabi/lib/thumb\libg.a(lib_a-strcmp.o)
                0x02009ef4                strcmp
 .text          0x0200a118      0x41c c:/code/devkitpro/devkitarm/bin/../lib/gcc/arm-none-eabi/6.3.0/thumb\libgcc.a(_arm_addsubdf3.o)
                0x0200a118                __aeabi_drsub
                0x0200a120                __aeabi_dsub
                0x0200a120                __subdf3
                0x0200a124                __aeabi_dadd
                0x0200a124                __adddf3
                0x0200a434                __floatunsidf
                0x0200a434                __aeabi_ui2d
                0x0200a458                __floatsidf
                0x0200a458                __aeabi_i2d
                0x0200a480                __aeabi_f2d
                0x0200a480                __extendsfdf2
                0x0200a4c0                __floatundidf
                0x0200a4c0                __aeabi_ul2d
                0x0200a4d4                __floatdidf
                0x0200a4d4                __aeabi_l2d
 .text          0x0200a534      0x49c c:/code/devkitpro/devkitarm/bin/../lib/gcc/arm-none-eabi/6.3.0/thumb\libgcc.a(_arm_muldivdf3.o)
                0x0200a534                __aeabi_dmul
                0x0200a534                __muldf3
                0x0200a7c4                __divdf3
                0x0200a7c4                __aeabi_ddiv
 .text          0x0200a9d0      0x144 c:/code/devkitpro/devkitarm/bin/../lib/gcc/arm-none-eabi/6.3.0/thumb\libgcc.a(_arm_cmpdf2.o)
                0x0200a9d0                __gtdf2
                0x0200a9d0                __gedf2
                0x0200a9d8                __ltdf2
                0x0200a9d8                __ledf2
                0x0200a9e0                __nedf2
                0x0200a9e0                __eqdf2
                0x0200a9e0                __cmpdf2
                0x0200aa68                __aeabi_cdrcmple
                0x0200aa84                __aeabi_cdcmpeq
                0x0200aa84                __aeabi_cdcmple
                0x0200aa9c                __aeabi_dcmpeq
                0x0200aab4                __aeabi_dcmplt
                0x0200aacc                __aeabi_dcmple
                0x0200aae4                __aeabi_dcmpge
                0x0200aafc                __aeabi_dcmpgt
 .text          0x0200ab14       0x38 c:/code/devkitpro/devkitarm/bin/../lib/gcc/arm-none-eabi/6.3.0/thumb\libgcc.a(_arm_unorddf2.o)
                0x0200ab14                __unorddf2
                0x0200ab14                __aeabi_dcmpun
 .text          0x0200ab4c       0x5c c:/code/devkitpro/devkitarm/bin/../lib/gcc/arm-none-eabi/6.3.0/thumb\libgcc.a(_arm_fixdfsi.o)
                0x0200ab4c                __aeabi_d2iz
                0x0200ab4c                __fixdfsi
 .text          0x0200aba8       0x3c c:/code/devkitpro/devkitarm/bin/../lib/gcc/arm-none-eabi/6.3.0/thumb\libgcc.a(_aeabi_uldivmod.o)
                0x0200aba8                __aeabi_uldivmod
 *(EXCLUDE_FILE(*.twl* *.vectors* *.itcm*) .stub)
 *(EXCLUDE_FILE(*.twl* *.vectors* *.itcm*) .text.*)
 .text.deregister_tm_clones
                0x0200abe4       0x30 c:/code/devkitpro/devkitarm/bin/../lib/gcc/arm-none-eabi/6.3.0/thumb/crtbegin.o
 .text.register_tm_clones
                0x0200ac14       0x34 c:/code/devkitpro/devkitarm/bin/../lib/gcc/arm-none-eabi/6.3.0/thumb/crtbegin.o
 .text.__do_global_dtors_aux
                0x0200ac48       0x30 c:/code/devkitpro/devkitarm/bin/../lib/gcc/arm-none-eabi/6.3.0/thumb/crtbegin.o
 .text.frame_dummy
                0x0200ac78       0x48 c:/code/devkitpro/devkitarm/bin/../lib/gcc/arm-none-eabi/6.3.0/thumb/crtbegin.o
 .text.startup  0x0200acc0      0x2f4 main.o
                0x0200acc0                main
 .text.nitroFSClose
                0x0200afb4        0x4 c:/code/devkitPro/libnds/lib\libfilesystem.a(nitrofs.o)
 .text.nitroFSSeek
                0x0200afb8       0x68 c:/code/devkitPro/libnds/lib\libfilesystem.a(nitrofs.o)
 .text.nitroFSFstat
                0x0200b020       0x10 c:/code/devkitPro/libnds/lib\libfilesystem.a(nitrofs.o)
 .text.nitroSubReadBlock
                0x0200b030       0x58 c:/code/devkitPro/libnds/lib\libfilesystem.a(nitrofs.o)
 .text.nitroSubReadCard
                0x0200b088       0xb4 c:/code/devkitPro/libnds/lib\libfilesystem.a(nitrofs.o)
 .text.nitroFSDirClose
                0x0200b13c        0x4 c:/code/devkitPro/libnds/lib\libfilesystem.a(nitrofs.o)
 .text.nitroDirReset
                0x0200b140       0xa4 c:/code/devkitPro/libnds/lib\libfilesystem.a(nitrofs.o)
 .text.nitroFSRead
                0x0200b1e4       0xb4 c:/code/devkitPro/libnds/lib\libfilesystem.a(nitrofs.o)
 .text.nitroFSDirNext
                0x0200b298      0x2f8 c:/code/devkitPro/libnds/lib\libfilesystem.a(nitrofs.o)
 .text.nitroFSDirOpen
                0x0200b590       0xe8 c:/code/devkitPro/libnds/lib\libfilesystem.a(nitrofs.o)
 .text.nitroFSChdir
                0x0200b678       0x30 c:/code/devkitPro/libnds/lib\libfilesystem.a(nitrofs.o)
 .text.nitroFSOpen
                0x0200b6a8       0xc4 c:/code/devkitPro/libnds/lib\libfilesystem.a(nitrofs.o)
 .text.nitroFSstat
                0x0200b76c       0x68 c:/code/devkitPro/libnds/lib\libfilesystem.a(nitrofs.o)
 .text.nitroFSInit
                0x0200b7d4      0x10c c:/code/devkitPro/libnds/lib\libfilesystem.a(nitrofs.o)
                0x0200b7d4                nitroFSInit
 .text.fatMount
                0x0200b8e0       0xc8 c:/code/devkitPro/libnds/lib\libfat.a(libfat.o)
                0x0200b8e0                fatMount
 .text.fatInit  0x0200b9a8      0x138 c:/code/devkitPro/libnds/lib\libfat.a(libfat.o)
                0x0200b9a8                fatInit
 .text.fatInitDefault
                0x0200bae0        0xc c:/code/devkitPro/libnds/lib\libfat.a(libfat.o)
                0x0200bae0                fatInitDefault
 .text._FAT_partition_createFSinfo.part.4
                0x0200baec       0xa4 c:/code/devkitPro/libnds/lib\libfat.a(partition.o)
 .text._FAT_partition_readFSinfo.part.5
                0x0200bb90       0x7c c:/code/devkitPro/libnds/lib\libfat.a(partition.o)
 .text.FindFirstValidPartition_buf
                0x0200bc0c      0x188 c:/code/devkitPro/libnds/lib\libfat.a(partition.o)
                0x0200bc0c                FindFirstValidPartition_buf
 .text._FAT_partition_constructor_buf
                0x0200bd94      0x2bc c:/code/devkitPro/libnds/lib\libfat.a(partition.o)
                0x0200bd94                _FAT_partition_constructor_buf
 .text._FAT_partition_constructor
                0x0200c050       0x40 c:/code/devkitPro/libnds/lib\libfat.a(partition.o)
                0x0200c050                _FAT_partition_constructor
 .text._FAT_partition_getPartitionFromPath
                0x0200c090       0x14 c:/code/devkitPro/libnds/lib\libfat.a(partition.o)
                0x0200c090                _FAT_partition_getPartitionFromPath
 .text._FAT_partition_createFSinfo
                0x0200c0a4       0x18 c:/code/devkitPro/libnds/lib\libfat.a(partition.o)
                0x0200c0a4                _FAT_partition_createFSinfo
 .text._FAT_lock_init
                0x0200c0bc        0x4 c:/code/devkitPro/libnds/lib\libfat.a(lock.o)
                0x0200c0bc                _FAT_lock_init
 .text._FAT_lock
                0x0200c0c0        0x4 c:/code/devkitPro/libnds/lib\libfat.a(lock.o)
                0x0200c0c0                _FAT_lock
 .text._FAT_unlock
                0x0200c0c4        0x4 c:/code/devkitPro/libnds/lib\libfat.a(lock.o)
                0x0200c0c4                _FAT_unlock
 .text._FAT_stat_r
                0x0200c0c8       0x90 c:/code/devkitPro/libnds/lib\libfat.a(fatdir.o)
                0x0200c0c8                _FAT_stat_r
 .text._FAT_link_r
                0x0200c158        0xc c:/code/devkitPro/libnds/lib\libfat.a(fatdir.o)
                0x0200c158                _FAT_link_r
 .text._FAT_unlink_r
                0x0200c164      0x180 c:/code/devkitPro/libnds/lib\libfat.a(fatdir.o)
                0x0200c164                _FAT_unlink_r
 .text._FAT_chdir_r
                0x0200c2e4       0x70 c:/code/devkitPro/libnds/lib\libfat.a(fatdir.o)
                0x0200c2e4                _FAT_chdir_r
 .text._FAT_rename_r
                0x0200c354      0x1c4 c:/code/devkitPro/libnds/lib\libfat.a(fatdir.o)
                0x0200c354                _FAT_rename_r
 .text._FAT_mkdir_r
                0x0200c518      0x25c c:/code/devkitPro/libnds/lib\libfat.a(fatdir.o)
                0x0200c518                _FAT_mkdir_r
 .text._FAT_statvfs_r
                0x0200c774       0x90 c:/code/devkitPro/libnds/lib\libfat.a(fatdir.o)
                0x0200c774                _FAT_statvfs_r
 .text._FAT_diropen_r
                0x0200c804       0xb4 c:/code/devkitPro/libnds/lib\libfat.a(fatdir.o)
                0x0200c804                _FAT_diropen_r
 .text._FAT_dirreset_r
                0x0200c8b8       0x4c c:/code/devkitPro/libnds/lib\libfat.a(fatdir.o)
                0x0200c8b8                _FAT_dirreset_r
 .text._FAT_dirnext_r
                0x0200c904       0x7c c:/code/devkitPro/libnds/lib\libfat.a(fatdir.o)
                0x0200c904                _FAT_dirnext_r
 .text._FAT_dirclose_r
                0x0200c980       0x20 c:/code/devkitPro/libnds/lib\libfat.a(fatdir.o)
                0x0200c980                _FAT_dirclose_r
 .text._FAT_cache_getPage
                0x0200c9a0       0xf0 c:/code/devkitPro/libnds/lib\libfat.a(cache.o)
 .text._FAT_cache_writePartialSector.part.3
                0x0200ca90       0x44 c:/code/devkitPro/libnds/lib\libfat.a(cache.o)
 .text._FAT_cache_constructor
                0x0200cad4       0x9c c:/code/devkitPro/libnds/lib\libfat.a(cache.o)
                0x0200cad4                _FAT_cache_constructor
 .text._FAT_cache_readSectors
                0x0200cb70       0x60 c:/code/devkitPro/libnds/lib\libfat.a(cache.o)
                0x0200cb70                _FAT_cache_readSectors
 .text._FAT_cache_readPartialSector
                0x0200cbd0       0x40 c:/code/devkitPro/libnds/lib\libfat.a(cache.o)
                0x0200cbd0                _FAT_cache_readPartialSector
 .text._FAT_cache_readLittleEndianValue
                0x0200cc10       0x70 c:/code/devkitPro/libnds/lib\libfat.a(cache.o)
                0x0200cc10                _FAT_cache_readLittleEndianValue
 .text._FAT_cache_writePartialSector
                0x0200cc80       0x20 c:/code/devkitPro/libnds/lib\libfat.a(cache.o)
                0x0200cc80                _FAT_cache_writePartialSector
 .text._FAT_cache_writeLittleEndianValue
                0x0200cca0       0x58 c:/code/devkitPro/libnds/lib\libfat.a(cache.o)
                0x0200cca0                _FAT_cache_writeLittleEndianValue
 .text._FAT_cache_eraseWritePartialSector
                0x0200ccf8       0x68 c:/code/devkitPro/libnds/lib\libfat.a(cache.o)
                0x0200ccf8                _FAT_cache_eraseWritePartialSector
 .text._FAT_cache_writeSectors
                0x0200cd60       0x74 c:/code/devkitPro/libnds/lib\libfat.a(cache.o)
                0x0200cd60                _FAT_cache_writeSectors
 .text._FAT_cache_flush
                0x0200cdd4       0x48 c:/code/devkitPro/libnds/lib\libfat.a(cache.o)
                0x0200cdd4                _FAT_cache_flush
 .text._FAT_check_position_for_next_cluster.isra.4.part.5
                0x0200ce1c       0x6c c:/code/devkitPro/libnds/lib\libfat.a(fatfile.o)
 .text._FAT_syncToDisc.part.6
                0x0200ce88       0xd4 c:/code/devkitPro/libnds/lib\libfat.a(fatfile.o)
 .text._FAT_file_extend_r
                0x0200cf5c      0x218 c:/code/devkitPro/libnds/lib\libfat.a(fatfile.o)
 .text._FAT_open_r
                0x0200d174      0x2f0 c:/code/devkitPro/libnds/lib\libfat.a(fatfile.o)
                0x0200d174                _FAT_open_r
 .text._FAT_close_r
                0x0200d464       0x74 c:/code/devkitPro/libnds/lib\libfat.a(fatfile.o)
                0x0200d464                _FAT_close_r
 .text._FAT_read_r
                0x0200d4d8      0x39c c:/code/devkitPro/libnds/lib\libfat.a(fatfile.o)
                0x0200d4d8                _FAT_read_r
 .text._FAT_write_r
                0x0200d874      0x514 c:/code/devkitPro/libnds/lib\libfat.a(fatfile.o)
                0x0200d874                _FAT_write_r
 .text._FAT_seek_r
                0x0200dd88      0x1ac c:/code/devkitPro/libnds/lib\libfat.a(fatfile.o)
                0x0200dd88                _FAT_seek_r
 .text._FAT_fstat_r
                0x0200df34       0x8c c:/code/devkitPro/libnds/lib\libfat.a(fatfile.o)
                0x0200df34                _FAT_fstat_r
 .text._FAT_ftruncate_r
                0x0200dfc0      0x16c c:/code/devkitPro/libnds/lib\libfat.a(fatfile.o)
                0x0200dfc0                _FAT_ftruncate_r
 .text._FAT_fsync_r
                0x0200e12c       0x44 c:/code/devkitPro/libnds/lib\libfat.a(fatfile.o)
                0x0200e12c                _FAT_fsync_r
 .text.get_io_dsisd
                0x0200e170       0x18 c:/code/devkitPro/libnds/lib\libfat.a(disc.o)
 .text._FAT_fat_writeFatEntry.part.0
                0x0200e188      0x144 c:/code/devkitPro/libnds/lib\libfat.a(file_allocation_table.o)
 .text._FAT_fat_nextCluster
                0x0200e2cc      0x118 c:/code/devkitPro/libnds/lib\libfat.a(file_allocation_table.o)
                0x0200e2cc                _FAT_fat_nextCluster
 .text._FAT_fat_clearLinks.part.1
                0x0200e3e4       0x64 c:/code/devkitPro/libnds/lib\libfat.a(file_allocation_table.o)
 .text._FAT_fat_linkFreeCluster
                0x0200e448       0x9c c:/code/devkitPro/libnds/lib\libfat.a(file_allocation_table.o)
                0x0200e448                _FAT_fat_linkFreeCluster
 .text._FAT_fat_linkFreeClusterCleared
                0x0200e4e4       0x68 c:/code/devkitPro/libnds/lib\libfat.a(file_allocation_table.o)
                0x0200e4e4                _FAT_fat_linkFreeClusterCleared
 .text._FAT_fat_clearLinks
                0x0200e54c       0x18 c:/code/devkitPro/libnds/lib\libfat.a(file_allocation_table.o)
                0x0200e54c                _FAT_fat_clearLinks
 .text._FAT_fat_trimChain
                0x0200e564       0xac c:/code/devkitPro/libnds/lib\libfat.a(file_allocation_table.o)
                0x0200e564                _FAT_fat_trimChain
 .text._FAT_fat_lastCluster
                0x0200e610       0x34 c:/code/devkitPro/libnds/lib\libfat.a(file_allocation_table.o)
                0x0200e610                _FAT_fat_lastCluster
 .text._FAT_fat_freeClusterCount
                0x0200e644       0x30 c:/code/devkitPro/libnds/lib\libfat.a(file_allocation_table.o)
                0x0200e644                _FAT_fat_freeClusterCount
 .text._FAT_filetime_getTimeFromRTC
                0x0200e674       0x44 c:/code/devkitPro/libnds/lib\libfat.a(filetime.o)
                0x0200e674                _FAT_filetime_getTimeFromRTC
 .text._FAT_filetime_getDateFromRTC
                0x0200e6b8       0x44 c:/code/devkitPro/libnds/lib\libfat.a(filetime.o)
                0x0200e6b8                _FAT_filetime_getDateFromRTC
 .text._FAT_filetime_to_time_t
                0x0200e6fc       0x38 c:/code/devkitPro/libnds/lib\libfat.a(filetime.o)
                0x0200e6fc                _FAT_filetime_to_time_t
 .text._FAT_directory_incrementDirEntryPosition
                0x0200e734       0x80 c:/code/devkitPro/libnds/lib\libfat.a(directory.o)
 .text._FAT_directory_entryGetAlias
                0x0200e7b4       0xec c:/code/devkitPro/libnds/lib\libfat.a(directory.o)
 .text._FAT_directory_mbsncasecmp
                0x0200e8a0       0xa0 c:/code/devkitPro/libnds/lib\libfat.a(directory.o)
 .text._FAT_directory_entryGetCluster.part.5
                0x0200e940       0x18 c:/code/devkitPro/libnds/lib\libfat.a(directory.o)
 .text._FAT_directory_ucs2tombs.constprop.6
                0x0200e958       0x84 c:/code/devkitPro/libnds/lib\libfat.a(directory.o)
 .text._FAT_directory_entryGetCluster
                0x0200e9dc       0x1c c:/code/devkitPro/libnds/lib\libfat.a(directory.o)
                0x0200e9dc                _FAT_directory_entryGetCluster
 .text._FAT_directory_getNextEntry
                0x0200e9f8      0x1ec c:/code/devkitPro/libnds/lib\libfat.a(directory.o)
                0x0200e9f8                _FAT_directory_getNextEntry
 .text._FAT_directory_entryExists
                0x0200ebe4       0x80 c:/code/devkitPro/libnds/lib\libfat.a(directory.o)
 .text._FAT_directory_getFirstEntry
                0x0200ec64       0x20 c:/code/devkitPro/libnds/lib\libfat.a(directory.o)
                0x0200ec64                _FAT_directory_getFirstEntry
 .text._FAT_directory_getRootEntry
                0x0200ec84       0x5c c:/code/devkitPro/libnds/lib\libfat.a(directory.o)
                0x0200ec84                _FAT_directory_getRootEntry
 .text._FAT_directory_entryFromPosition
                0x0200ece0      0x150 c:/code/devkitPro/libnds/lib\libfat.a(directory.o)
                0x0200ece0                _FAT_directory_entryFromPosition
 .text._FAT_directory_entryFromPath
                0x0200ee30      0x240 c:/code/devkitPro/libnds/lib\libfat.a(directory.o)
                0x0200ee30                _FAT_directory_entryFromPath
 .text._FAT_directory_removeEntry
                0x0200f070       0xe0 c:/code/devkitPro/libnds/lib\libfat.a(directory.o)
                0x0200f070                _FAT_directory_removeEntry
 .text._FAT_directory_addEntry
                0x0200f150      0x82c c:/code/devkitPro/libnds/lib\libfat.a(directory.o)
                0x0200f150                _FAT_directory_addEntry
 .text._FAT_directory_chdir
                0x0200f97c       0x44 c:/code/devkitPro/libnds/lib\libfat.a(directory.o)
                0x0200f97c                _FAT_directory_chdir
 .text._FAT_directory_entryStat
                0x0200f9c0       0xd8 c:/code/devkitPro/libnds/lib\libfat.a(directory.o)
                0x0200f9c0                _FAT_directory_entryStat
 .text.newRow   0x0200fa98       0xb4 c:/code/devkitPro/libnds/lib\libnds9.a(console.o)
 .text.consolePrintChar
                0x0200fb4c       0xf4 c:/code/devkitPro/libnds/lib\libnds9.a(console.o)
                0x0200fb4c                consolePrintChar
 .text.consoleCls
                0x0200fc40       0xec c:/code/devkitPro/libnds/lib\libnds9.a(console.o)
 .text.consoleLoadFont
                0x0200fd2c      0x27c c:/code/devkitPro/libnds/lib\libnds9.a(console.o)
                0x0200fd2c                consoleLoadFont
 .text.consoleInit
                0x0200ffa8      0x16c c:/code/devkitPro/libnds/lib\libnds9.a(console.o)
                0x0200ffa8                consoleInit
 .text.consoleDemoInit
                0x02010114       0x40 c:/code/devkitPro/libnds/lib\libnds9.a(console.o)
                0x02010114                consoleDemoInit
 .text.con_write
                0x02010154      0x2ac c:/code/devkitPro/libnds/lib\libnds9.a(console.o)
                0x02010154                con_write
 .text.consoleClear
                0x02010400       0x10 c:/code/devkitPro/libnds/lib\libnds9.a(console.o)
                0x02010400                consoleClear
 .text.setBrightness
                0x02010410       0x40 c:/code/devkitPro/libnds/lib\libnds9.a(video.o)
                0x02010410                setBrightness
 .text.vramDefault
                0x02010450       0xd0 c:/code/devkitPro/libnds/lib\libnds9.a(video.o)
                0x02010450                vramDefault
 .text.checkIfText.part.0
                0x02010520       0x3c c:/code/devkitPro/libnds/lib\libnds9.a(background.o)
 .text.bgUpdate
                0x0201055c       0xf0 c:/code/devkitPro/libnds/lib\libnds9.a(background.o)
                0x0201055c                bgUpdate
 .text.bgInit_call
                0x0201064c       0xf4 c:/code/devkitPro/libnds/lib\libnds9.a(background.o)
                0x0201064c                bgInit_call
 .text.bgInitSub_call
                0x02010740       0xf8 c:/code/devkitPro/libnds/lib\libnds9.a(background.o)
                0x02010740                bgInitSub_call
 .text.sinLerp  0x02010838       0x98 c:/code/devkitPro/libnds/lib\libnds9.a(trig.o)
                0x02010838                sinLerp
 .text.cosLerp  0x020108d0       0x14 c:/code/devkitPro/libnds/lib\libnds9.a(trig.o)
                0x020108d0                cosLerp
 .text.vramBlock_init
                0x020108e4       0x5c c:/code/devkitPro/libnds/lib\libnds9.a(videoGL.o)
                0x020108e4                vramBlock_init
 .text.vramBlock_Construct
                0x02010940       0x28 c:/code/devkitPro/libnds/lib\libnds9.a(videoGL.o)
                0x02010940                vramBlock_Construct
 .text.glInit_C
                0x02010968      0x1a0 c:/code/devkitPro/libnds/lib\libnds9.a(videoGL.o)
                0x02010968                glInit_C
 .text.oamInit  0x02010b08      0x11c c:/code/devkitPro/libnds/lib\libnds9.a(sprite.o)
                0x02010b08                oamInit
 .text.oamGfxPtrToOffset
                0x02010c24       0x34 c:/code/devkitPro/libnds/lib\libnds9.a(sprite.o)
                0x02010c24                oamGfxPtrToOffset
 .text.oamSet   0x02010c58      0x15c c:/code/devkitPro/libnds/lib\libnds9.a(sprite.o)
                0x02010c58                oamSet
 .text.oamRotateScale
                0x02010db4       0x50 c:/code/devkitPro/libnds/lib\libnds9.a(sprite.o)
                0x02010db4                oamRotateScale
 .text.dldiGetInternal
                0x02010e04       0x34 c:/code/devkitPro/libnds/lib\libnds9.a(dldi.o)
                0x02010e04                dldiGetInternal
 .text.initSystem
                0x02010e38      0x194 c:/code/devkitPro/libnds/lib\libnds9.a(initSystem.o)
                0x02010e38                initSystem
 .text.__libnds_gtod
                0x02010fcc       0x24 c:/code/devkitPro/libnds/lib\libnds9.a(timeSupport.o)
                0x02010fcc                __libnds_gtod
 .text.irqDummy
                0x02010ff0        0x4 c:/code/devkitPro/libnds/lib\libnds9.a(interrupts.o)
                0x02010ff0                irqDummy
 .text.irqSet   0x02010ff4       0x6c c:/code/devkitPro/libnds/lib\libnds9.a(interrupts.o)
                0x02010ff4                irqSet
 .text.irqInit  0x02011060       0x50 c:/code/devkitPro/libnds/lib\libnds9.a(interrupts.o)
                0x02011060                irqInit
 .text.irqEnable
                0x020110b0       0x64 c:/code/devkitPro/libnds/lib\libnds9.a(interrupts.o)
                0x020110b0                irqEnable
 .text.irqDisable
                0x02011114       0x64 c:/code/devkitPro/libnds/lib\libnds9.a(interrupts.o)
                0x02011114                irqDisable
 .text.systemErrorExit
                0x02011178        0x4 c:/code/devkitPro/libnds/lib\libnds9.a(libnds_exit.arm.o)
                0x02011178                systemErrorExit
 *fill*         0x0201117c        0x4 ff
 .text.__libnds_exit
                0x02011180       0x5c c:/code/devkitPro/libnds/lib\libnds9.a(libnds_exit.arm.o)
                0x02011180                __libnds_exit
 .text.cardPolledTransfer
                0x020111dc       0x50 c:/code/devkitPro/libnds/lib\libnds9.a(card.o)
                0x020111dc                cardPolledTransfer
 .text.cardParamCommand
                0x0201122c       0x34 c:/code/devkitPro/libnds/lib\libnds9.a(card.o)
                0x0201122c                cardParamCommand
 .text.__timeoutvbl
                0x02011260       0x10 c:/code/devkitPro/libnds/lib\libnds9.a(fifosystem.o)
 .text.fifo_allocBlock.part.0
                0x02011270       0x34 c:/code/devkitPro/libnds/lib\libnds9.a(fifosystem.o)
 .text.fifo_waitBlock
                0x020112a4       0x48 c:/code/devkitPro/libnds/lib\libnds9.a(fifosystem.o)
 .text.fifoInternalSendInterrupt
                0x020112ec       0x9c c:/code/devkitPro/libnds/lib\libnds9.a(fifosystem.o)
 .text.fifoInternalSend.part.2
                0x02011388       0xd8 c:/code/devkitPro/libnds/lib\libnds9.a(fifosystem.o)
 .text.fifoGetValue32.part.3
                0x02011460       0x74 c:/code/devkitPro/libnds/lib\libnds9.a(fifosystem.o)
 .text.fifoSetValue32Handler
                0x020114d4       0x74 c:/code/devkitPro/libnds/lib\libnds9.a(fifosystem.o)
                0x020114d4                fifoSetValue32Handler
 .text.fifoSendValue32
                0x02011548       0x50 c:/code/devkitPro/libnds/lib\libnds9.a(fifosystem.o)
                0x02011548                fifoSendValue32
 .text.fifoSendDatamsg
                0x02011598       0x90 c:/code/devkitPro/libnds/lib\libnds9.a(fifosystem.o)
                0x02011598                fifoSendDatamsg
 .text.fifoGetValue32
                0x02011628       0x14 c:/code/devkitPro/libnds/lib\libnds9.a(fifosystem.o)
                0x02011628                fifoGetValue32
 .text.fifoGetDatamsg
                0x0201163c      0x148 c:/code/devkitPro/libnds/lib\libnds9.a(fifosystem.o)
                0x0201163c                fifoGetDatamsg
 .text.fifoInternalRecvInterrupt
                0x02011784      0x460 c:/code/devkitPro/libnds/lib\libnds9.a(fifosystem.o)
 .text.fifoSetDatamsgHandler
                0x02011be4       0x9c c:/code/devkitPro/libnds/lib\libnds9.a(fifosystem.o)
                0x02011be4                fifoSetDatamsgHandler
 .text.fifoCheckValue32
                0x02011c80       0x24 c:/code/devkitPro/libnds/lib\libnds9.a(fifosystem.o)
                0x02011c80                fifoCheckValue32
 .text.fifoInit
                0x02011ca4      0x1cc c:/code/devkitPro/libnds/lib\libnds9.a(fifosystem.o)
                0x02011ca4                fifoInit
 .text.DC_FlushRange
                0x02011e70       0x24 c:/code/devkitPro/libnds/lib\libnds9.a(dcache.o)
                0x02011e70                DC_FlushRange
 .text.DC_InvalidateRange
                0x02011e94       0x2c c:/code/devkitPro/libnds/lib\libnds9.a(dcache.o)
                0x02011e94                DC_InvalidateRange
 .text.__libnds_mpu_setup
                0x02011ec0      0x174 c:/code/devkitPro/libnds/lib\libnds9.a(mpu_setup.o)
                0x02011ec0                __libnds_mpu_setup
 .text.memUncached
                0x02012034       0x20 c:/code/devkitPro/libnds/lib\libnds9.a(mpu_setup.o)
                0x02012034                memUncached
 .text.swiWaitForVBlank
                0x02012054        0x8 c:/code/devkitPro/libnds/lib\libnds9.a(IntrWait.o)
                0x02012054                swiWaitForVBlank
 .text.swiIntrWait
                0x0201205c       0x64 c:/code/devkitPro/libnds/lib\libnds9.a(IntrWait.o)
                0x0201205c                swiIntrWait
 .text.setCpuClock
                0x020120c0       0x50 c:/code/devkitPro/libnds/lib\libnds9.a(cpu_clock.o)
                0x020120c0                setCpuClock
 .text.swiSoftReset
                0x02012110       0x2c c:/code/devkitPro/libnds/lib\libnds9.a(swiSoftReset.o)
                0x02012110                swiSoftReset
 .text.swiDelay
                0x0201213c        0x4 c:/code/devkitPro/libnds/lib\libnds9.a(biosCalls.o)
                0x0201213c                swiDelay
 .text.DynamicArrayInit
                0x02012140       0x18 c:/code/devkitPro/libnds/lib\libnds9.a(dynamicArray.o)
                0x02012140                DynamicArrayInit
 .text.DynamicArraySet
                0x02012158       0x48 c:/code/devkitPro/libnds/lib\libnds9.a(dynamicArray.o)
                0x02012158                DynamicArraySet
 .text.oamAllocReset
                0x020121a0       0x1c c:/code/devkitPro/libnds/lib\libnds9.a(sprite_alloc.o)
                0x020121a0                oamAllocReset
 .text.systemValueHandler
                0x020121bc       0x48 c:/code/devkitPro/libnds/lib\libnds9.a(system.o)
                0x020121bc                systemValueHandler
 .text.systemMsgHandler
                0x02012204       0x5c c:/code/devkitPro/libnds/lib\libnds9.a(system.o)
                0x02012204                systemMsgHandler
 .text.powerOn  0x02012260       0x2c c:/code/devkitPro/libnds/lib\libnds9.a(system.o)
                0x02012260                powerOn
 .text.__muldi3
                0x0201228c       0x60 c:/code/devkitpro/devkitarm/bin/../lib/gcc/arm-none-eabi/6.3.0/thumb\libgcc.a(_muldi3.o)
                0x0201228c                __muldi3
                0x0201228c                __aeabi_lmul
 .text.__udivmoddi4
                0x020122ec      0x184 c:/code/devkitpro/devkitarm/bin/../lib/gcc/arm-none-eabi/6.3.0/thumb\libgcc.a(_udivmoddi4.o)
                0x020122ec                __udivmoddi4
 .text.calloc   0x02012470       0x18 c:/code/devkitpro/devkitarm/bin/../lib/gcc/arm-none-eabi/6.3.0/../../../../arm-none-eabi/lib/thumb\libg.a(lib_a-calloc.o)
                0x02012470                calloc
 .text._calloc_r
                0x02012488       0x5c c:/code/devkitpro/devkitarm/bin/../lib/gcc/arm-none-eabi/6.3.0/../../../../arm-none-eabi/lib/thumb\libg.a(lib_a-callocr.o)
                0x02012488                _calloc_r
 .text._fclose_r
                0x020124e4       0xd4 c:/code/devkitpro/devkitarm/bin/../lib/gcc/arm-none-eabi/6.3.0/../../../../arm-none-eabi/lib/thumb\libg.a(lib_a-fclose.o)
                0x020124e4                _fclose_r
 .text.fclose   0x020125b8       0x14 c:/code/devkitpro/devkitarm/bin/../lib/gcc/arm-none-eabi/6.3.0/../../../../arm-none-eabi/lib/thumb\libg.a(lib_a-fclose.o)
                0x020125b8                fclose
 .text.__sflush_r
                0x020125cc      0x1a4 c:/code/devkitpro/devkitarm/bin/../lib/gcc/arm-none-eabi/6.3.0/../../../../arm-none-eabi/lib/thumb\libg.a(lib_a-fflush.o)
                0x020125cc                __sflush_r
 .text._fflush_r
                0x02012770       0x58 c:/code/devkitpro/devkitarm/bin/../lib/gcc/arm-none-eabi/6.3.0/../../../../arm-none-eabi/lib/thumb\libg.a(lib_a-fflush.o)
                0x02012770                _fflush_r
 .text.fflush   0x020127c8       0x2c c:/code/devkitpro/devkitarm/bin/../lib/gcc/arm-none-eabi/6.3.0/../../../../arm-none-eabi/lib/thumb\libg.a(lib_a-fflush.o)
                0x020127c8                fflush
 .text._cleanup_r
                0x020127f4       0x14 c:/code/devkitpro/devkitarm/bin/../lib/gcc/arm-none-eabi/6.3.0/../../../../arm-none-eabi/lib/thumb\libg.a(lib_a-findfp.o)
                0x020127f4                _cleanup_r
 .text.std.isra.0
                0x02012808       0x54 c:/code/devkitpro/devkitarm/bin/../lib/gcc/arm-none-eabi/6.3.0/../../../../arm-none-eabi/lib/thumb\libg.a(lib_a-findfp.o)
 .text.__sfmoreglue
                0x0201285c       0x34 c:/code/devkitpro/devkitarm/bin/../lib/gcc/arm-none-eabi/6.3.0/../../../../arm-none-eabi/lib/thumb\libg.a(lib_a-findfp.o)
                0x0201285c                __sfmoreglue
 .text.__sinit  0x02012890       0x64 c:/code/devkitpro/devkitarm/bin/../lib/gcc/arm-none-eabi/6.3.0/../../../../arm-none-eabi/lib/thumb\libg.a(lib_a-findfp.o)
                0x02012890                __sinit
 .text.__sfp    0x020128f4       0xb0 c:/code/devkitpro/devkitarm/bin/../lib/gcc/arm-none-eabi/6.3.0/../../../../arm-none-eabi/lib/thumb\libg.a(lib_a-findfp.o)
                0x020128f4                __sfp
 .text.__sfp_lock_acquire
                0x020129a4       0x14 c:/code/devkitpro/devkitarm/bin/../lib/gcc/arm-none-eabi/6.3.0/../../../../arm-none-eabi/lib/thumb\libg.a(lib_a-findfp.o)
                0x020129a4                __sfp_lock_acquire
 .text.__sfp_lock_release
                0x020129b8       0x14 c:/code/devkitpro/devkitarm/bin/../lib/gcc/arm-none-eabi/6.3.0/../../../../arm-none-eabi/lib/thumb\libg.a(lib_a-findfp.o)
                0x020129b8                __sfp_lock_release
 .text._fopen_r
                0x020129cc       0xb8 c:/code/devkitpro/devkitarm/bin/../lib/gcc/arm-none-eabi/6.3.0/../../../../arm-none-eabi/lib/thumb\libg.a(lib_a-fopen.o)
                0x020129cc                _fopen_r
 .text.fopen    0x02012a84       0x18 c:/code/devkitpro/devkitarm/bin/../lib/gcc/arm-none-eabi/6.3.0/../../../../arm-none-eabi/lib/thumb\libg.a(lib_a-fopen.o)
                0x02012a84                fopen
 .text._fread_r
                0x02012a9c      0x1c4 c:/code/devkitpro/devkitarm/bin/../lib/gcc/arm-none-eabi/6.3.0/../../../../arm-none-eabi/lib/thumb\libg.a(lib_a-fread.o)
                0x02012a9c                _fread_r
 .text.fread    0x02012c60       0x24 c:/code/devkitpro/devkitarm/bin/../lib/gcc/arm-none-eabi/6.3.0/../../../../arm-none-eabi/lib/thumb\libg.a(lib_a-fread.o)
                0x02012c60                fread
 .text._malloc_trim_r
                0x02012c84       0xa4 c:/code/devkitpro/devkitarm/bin/../lib/gcc/arm-none-eabi/6.3.0/../../../../arm-none-eabi/lib/thumb\libg.a(lib_a-freer.o)
                0x02012c84                _malloc_trim_r
 .text._free_r  0x02012d28      0x1c0 c:/code/devkitpro/devkitarm/bin/../lib/gcc/arm-none-eabi/6.3.0/../../../../arm-none-eabi/lib/thumb\libg.a(lib_a-freer.o)
                0x02012d28                _free_r
 .text._fseek_r
                0x02012ee8       0x14 c:/code/devkitpro/devkitarm/bin/../lib/gcc/arm-none-eabi/6.3.0/../../../../arm-none-eabi/lib/thumb\libg.a(lib_a-fseek.o)
                0x02012ee8                _fseek_r
 .text.fseek    0x02012efc       0x24 c:/code/devkitpro/devkitarm/bin/../lib/gcc/arm-none-eabi/6.3.0/../../../../arm-none-eabi/lib/thumb\libg.a(lib_a-fseek.o)
                0x02012efc                fseek
 .text._fseeko_r
                0x02012f20      0x410 c:/code/devkitpro/devkitarm/bin/../lib/gcc/arm-none-eabi/6.3.0/../../../../arm-none-eabi/lib/thumb\libg.a(lib_a-fseeko.o)
                0x02012f20                _fseeko_r
 .text.ftell    0x02013330       0x24 c:/code/devkitpro/devkitarm/bin/../lib/gcc/arm-none-eabi/6.3.0/../../../../arm-none-eabi/lib/thumb\libg.a(lib_a-ftell.o)
                0x02013330                ftell
 .text._ftello_r
                0x02013354       0xf8 c:/code/devkitpro/devkitarm/bin/../lib/gcc/arm-none-eabi/6.3.0/../../../../arm-none-eabi/lib/thumb\libg.a(lib_a-ftello.o)
                0x02013354                _ftello_r
 .text._fwalk   0x0201344c       0x4c c:/code/devkitpro/devkitarm/bin/../lib/gcc/arm-none-eabi/6.3.0/../../../../arm-none-eabi/lib/thumb\libg.a(lib_a-fwalk.o)
                0x0201344c                _fwalk
 .text._fwalk_reent
                0x02013498       0x54 c:/code/devkitpro/devkitarm/bin/../lib/gcc/arm-none-eabi/6.3.0/../../../../arm-none-eabi/lib/thumb\libg.a(lib_a-fwalk.o)
                0x02013498                _fwalk_reent
 .text.__libc_init_array
                0x020134ec       0x58 c:/code/devkitpro/devkitarm/bin/../lib/gcc/arm-none-eabi/6.3.0/../../../../arm-none-eabi/lib/thumb\libg.a(lib_a-init.o)
                0x020134ec                __libc_init_array
 .text.iprintf  0x02013544       0x24 c:/code/devkitpro/devkitarm/bin/../lib/gcc/arm-none-eabi/6.3.0/../../../../arm-none-eabi/lib/thumb\libg.a(lib_a-iprintf.o)
                0x02013544                iprintf
 .text.localtime_r
                0x02013568      0x218 c:/code/devkitpro/devkitarm/bin/../lib/gcc/arm-none-eabi/6.3.0/../../../../arm-none-eabi/lib/thumb\libg.a(lib_a-lcltime_r.o)
                0x02013568                localtime_r
 .text.__locale_mb_cur_max
                0x02013780       0x20 c:/code/devkitpro/devkitarm/bin/../lib/gcc/arm-none-eabi/6.3.0/../../../../arm-none-eabi/lib/thumb\libg.a(lib_a-locale.o)
                0x02013780                __locale_mb_cur_max
 .text.__locale_ctype_ptr_l
                0x020137a0        0x8 c:/code/devkitpro/devkitarm/bin/../lib/gcc/arm-none-eabi/6.3.0/../../../../arm-none-eabi/lib/thumb\libg.a(lib_a-locale.o)
                0x020137a0                __locale_ctype_ptr_l
 .text.__locale_ctype_ptr
                0x020137a8       0x20 c:/code/devkitpro/devkitarm/bin/../lib/gcc/arm-none-eabi/6.3.0/../../../../arm-none-eabi/lib/thumb\libg.a(lib_a-locale.o)
                0x020137a8                __locale_ctype_ptr
 .text.__swhatbuf_r
                0x020137c8       0x64 c:/code/devkitpro/devkitarm/bin/../lib/gcc/arm-none-eabi/6.3.0/../../../../arm-none-eabi/lib/thumb\libg.a(lib_a-makebuf.o)
                0x020137c8                __swhatbuf_r
 .text.__smakebuf_r
                0x0201382c       0x98 c:/code/devkitpro/devkitarm/bin/../lib/gcc/arm-none-eabi/6.3.0/../../../../arm-none-eabi/lib/thumb\libg.a(lib_a-makebuf.o)
                0x0201382c                __smakebuf_r
 .text.malloc   0x020138c4       0x14 c:/code/devkitpro/devkitarm/bin/../lib/gcc/arm-none-eabi/6.3.0/../../../../arm-none-eabi/lib/thumb\libg.a(lib_a-malloc.o)
                0x020138c4                malloc
 .text.free     0x020138d8       0x14 c:/code/devkitpro/devkitarm/bin/../lib/gcc/arm-none-eabi/6.3.0/../../../../arm-none-eabi/lib/thumb\libg.a(lib_a-malloc.o)
                0x020138d8                free
 .text._malloc_r
                0x020138ec      0x560 c:/code/devkitpro/devkitarm/bin/../lib/gcc/arm-none-eabi/6.3.0/../../../../arm-none-eabi/lib/thumb\libg.a(lib_a-mallocr.o)
                0x020138ec                _malloc_r
 .text._mbrtowc_r
                0x02013e4c       0x8c c:/code/devkitpro/devkitarm/bin/../lib/gcc/arm-none-eabi/6.3.0/../../../../arm-none-eabi/lib/thumb\libg.a(lib_a-mbrtowc.o)
                0x02013e4c                _mbrtowc_r
 .text.mbrtowc  0x02013ed8       0x90 c:/code/devkitpro/devkitarm/bin/../lib/gcc/arm-none-eabi/6.3.0/../../../../arm-none-eabi/lib/thumb\libg.a(lib_a-mbrtowc.o)
                0x02013ed8                mbrtowc
 .text.mbsrtowcs
                0x02013f68       0x28 c:/code/devkitpro/devkitarm/bin/../lib/gcc/arm-none-eabi/6.3.0/../../../../arm-none-eabi/lib/thumb\libg.a(lib_a-mbsrtowcs.o)
                0x02013f68                mbsrtowcs
 .text.__utf8_mbtowc
                0x02013f90      0x2a0 c:/code/devkitpro/devkitarm/bin/../lib/gcc/arm-none-eabi/6.3.0/../../../../arm-none-eabi/lib/thumb\libg.a(lib_a-mbtowc_r.o)
                0x02013f90                __utf8_mbtowc
 .text.memcmp   0x02014230       0x50 c:/code/devkitpro/devkitarm/bin/../lib/gcc/arm-none-eabi/6.3.0/../../../../arm-none-eabi/lib/thumb\libg.a(lib_a-memcmp.o)
                0x02014230                memcmp
 .text.memcpy   0x02014280       0x88 c:/code/devkitpro/devkitarm/bin/../lib/gcc/arm-none-eabi/6.3.0/../../../../arm-none-eabi/lib/thumb\libg.a(lib_a-memcpy-stub.o)
                0x02014280                memcpy
 .text.memmove  0x02014308       0xa4 c:/code/devkitpro/devkitarm/bin/../lib/gcc/arm-none-eabi/6.3.0/../../../../arm-none-eabi/lib/thumb\libg.a(lib_a-memmove.o)
                0x02014308                memmove
 .text.memset   0x020143ac       0x9c c:/code/devkitpro/devkitarm/bin/../lib/gcc/arm-none-eabi/6.3.0/../../../../arm-none-eabi/lib/thumb\libg.a(lib_a-memset.o)
                0x020143ac                memset
 .text.validate_structure
                0x02014448      0x1e8 c:/code/devkitpro/devkitarm/bin/../lib/gcc/arm-none-eabi/6.3.0/../../../../arm-none-eabi/lib/thumb\libg.a(lib_a-mktime.o)
 .text.mktime   0x02014630      0x384 c:/code/devkitpro/devkitarm/bin/../lib/gcc/arm-none-eabi/6.3.0/../../../../arm-none-eabi/lib/thumb\libg.a(lib_a-mktime.o)
                0x02014630                mktime
 .text.__malloc_lock
                0x020149b4       0x14 c:/code/devkitpro/devkitarm/bin/../lib/gcc/arm-none-eabi/6.3.0/../../../../arm-none-eabi/lib/thumb\libg.a(lib_a-mlock.o)
                0x020149b4                __malloc_lock
 .text.__malloc_unlock
                0x020149c8       0x14 c:/code/devkitpro/devkitarm/bin/../lib/gcc/arm-none-eabi/6.3.0/../../../../arm-none-eabi/lib/thumb\libg.a(lib_a-mlock.o)
                0x020149c8                __malloc_unlock
 .text.srand    0x020149dc       0x18 c:/code/devkitpro/devkitarm/bin/../lib/gcc/arm-none-eabi/6.3.0/../../../../arm-none-eabi/lib/thumb\libg.a(lib_a-rand.o)
                0x020149dc                srand
 .text.rand     0x020149f4       0x34 c:/code/devkitpro/devkitarm/bin/../lib/gcc/arm-none-eabi/6.3.0/../../../../arm-none-eabi/lib/thumb\libg.a(lib_a-rand.o)
                0x020149f4                rand
 .text.realloc  0x02014a28       0x18 c:/code/devkitpro/devkitarm/bin/../lib/gcc/arm-none-eabi/6.3.0/../../../../arm-none-eabi/lib/thumb\libg.a(lib_a-realloc.o)
                0x02014a28                realloc
 .text._realloc_r
                0x02014a40      0x38c c:/code/devkitpro/devkitarm/bin/../lib/gcc/arm-none-eabi/6.3.0/../../../../arm-none-eabi/lib/thumb\libg.a(lib_a-reallocr.o)
                0x02014a40                _realloc_r
 .text.lflush   0x02014dcc       0x20 c:/code/devkitpro/devkitarm/bin/../lib/gcc/arm-none-eabi/6.3.0/../../../../arm-none-eabi/lib/thumb\libg.a(lib_a-refill.o)
 .text.__srefill_r
                0x02014dec      0x11c c:/code/devkitpro/devkitarm/bin/../lib/gcc/arm-none-eabi/6.3.0/../../../../arm-none-eabi/lib/thumb\libg.a(lib_a-refill.o)
                0x02014dec                __srefill_r
 .text.rewind   0x02014f08       0x28 c:/code/devkitpro/devkitarm/bin/../lib/gcc/arm-none-eabi/6.3.0/../../../../arm-none-eabi/lib/thumb\libg.a(lib_a-rewind.o)
                0x02014f08                rewind
 .text.setvbuf  0x02014f30      0x1a4 c:/code/devkitpro/devkitarm/bin/../lib/gcc/arm-none-eabi/6.3.0/../../../../arm-none-eabi/lib/thumb\libg.a(lib_a-setvbuf.o)
                0x02014f30                setvbuf
 .text.siscanf  0x020150d4       0x4c c:/code/devkitpro/devkitarm/bin/../lib/gcc/arm-none-eabi/6.3.0/../../../../arm-none-eabi/lib/thumb\libg.a(lib_a-siscanf.o)
                0x020150d4                siscanf
 .text.sprintf  0x02015120       0x48 c:/code/devkitpro/devkitarm/bin/../lib/gcc/arm-none-eabi/6.3.0/../../../../arm-none-eabi/lib/thumb\libg.a(lib_a-sprintf.o)
                0x02015120                sprintf
 .text.__sread  0x02015168       0x34 c:/code/devkitpro/devkitarm/bin/../lib/gcc/arm-none-eabi/6.3.0/../../../../arm-none-eabi/lib/thumb\libg.a(lib_a-stdio.o)
                0x02015168                __sread
 .text.__seofread
                0x0201519c        0x4 c:/code/devkitpro/devkitarm/bin/../lib/gcc/arm-none-eabi/6.3.0/../../../../arm-none-eabi/lib/thumb\libg.a(lib_a-stdio.o)
                0x0201519c                __seofread
 .text.__swrite
                0x020151a0       0x48 c:/code/devkitpro/devkitarm/bin/../lib/gcc/arm-none-eabi/6.3.0/../../../../arm-none-eabi/lib/thumb\libg.a(lib_a-stdio.o)
                0x020151a0                __swrite
 .text.__sseek  0x020151e8       0x40 c:/code/devkitpro/devkitarm/bin/../lib/gcc/arm-none-eabi/6.3.0/../../../../arm-none-eabi/lib/thumb\libg.a(lib_a-stdio.o)
                0x020151e8                __sseek
 .text.__sclose
                0x02015228       0x10 c:/code/devkitpro/devkitarm/bin/../lib/gcc/arm-none-eabi/6.3.0/../../../../arm-none-eabi/lib/thumb\libg.a(lib_a-stdio.o)
                0x02015228                __sclose
 .text.stpcpy   0x02015238       0x48 c:/code/devkitpro/devkitarm/bin/../lib/gcc/arm-none-eabi/6.3.0/../../../../arm-none-eabi/lib/thumb\libg.a(lib_a-stpcpy.o)
                0x02015238                stpcpy
 .text.strchr   0x02015280       0xe0 c:/code/devkitpro/devkitarm/bin/../lib/gcc/arm-none-eabi/6.3.0/../../../../arm-none-eabi/lib/thumb\libg.a(lib_a-strchr.o)
                0x02015280                strchr
 .text.strcpy   0x02015360       0x10 c:/code/devkitpro/devkitarm/bin/../lib/gcc/arm-none-eabi/6.3.0/../../../../arm-none-eabi/lib/thumb\libg.a(lib_a-strcpy.o)
                0x02015360                strcpy
 .text.strdup   0x02015370       0x14 c:/code/devkitpro/devkitarm/bin/../lib/gcc/arm-none-eabi/6.3.0/../../../../arm-none-eabi/lib/thumb\libg.a(lib_a-strdup.o)
                0x02015370                strdup
 .text._strdup_r
                0x02015384       0x2c c:/code/devkitpro/devkitarm/bin/../lib/gcc/arm-none-eabi/6.3.0/../../../../arm-none-eabi/lib/thumb\libg.a(lib_a-strdup_r.o)
                0x02015384                _strdup_r
 .text.strlen   0x020153b0       0x68 c:/code/devkitpro/devkitarm/bin/../lib/gcc/arm-none-eabi/6.3.0/../../../../arm-none-eabi/lib/thumb\libg.a(lib_a-strlen-stub.o)
                0x020153b0                strlen
 .text.strncasecmp
                0x02015418       0x6c c:/code/devkitpro/devkitarm/bin/../lib/gcc/arm-none-eabi/6.3.0/../../../../arm-none-eabi/lib/thumb\libg.a(lib_a-strncasecmp.o)
                0x02015418                strncasecmp
 .text.strncmp  0x02015484       0x94 c:/code/devkitpro/devkitarm/bin/../lib/gcc/arm-none-eabi/6.3.0/../../../../arm-none-eabi/lib/thumb\libg.a(lib_a-strncmp.o)
                0x02015484                strncmp
 .text.strncpy  0x02015518       0x80 c:/code/devkitpro/devkitarm/bin/../lib/gcc/arm-none-eabi/6.3.0/../../../../arm-none-eabi/lib/thumb\libg.a(lib_a-strncpy.o)
                0x02015518                strncpy
 .text.strnlen  0x02015598       0x24 c:/code/devkitpro/devkitarm/bin/../lib/gcc/arm-none-eabi/6.3.0/../../../../arm-none-eabi/lib/thumb\libg.a(lib_a-strnlen.o)
                0x02015598                strnlen
 .text.strpbrk  0x020155bc       0x4c c:/code/devkitpro/devkitarm/bin/../lib/gcc/arm-none-eabi/6.3.0/../../../../arm-none-eabi/lib/thumb\libg.a(lib_a-strpbrk.o)
                0x020155bc                strpbrk
 .text.strrchr  0x02015608       0x2c c:/code/devkitpro/devkitarm/bin/../lib/gcc/arm-none-eabi/6.3.0/../../../../arm-none-eabi/lib/thumb\libg.a(lib_a-strrchr.o)
                0x02015608                strrchr
 .text._strtol_l.isra.0
                0x02015634      0x180 c:/code/devkitpro/devkitarm/bin/../lib/gcc/arm-none-eabi/6.3.0/../../../../arm-none-eabi/lib/thumb\libg.a(lib_a-strtol.o)
 .text._strtol_r
                0x020157b4       0x34 c:/code/devkitpro/devkitarm/bin/../lib/gcc/arm-none-eabi/6.3.0/../../../../arm-none-eabi/lib/thumb\libg.a(lib_a-strtol.o)
                0x020157b4                _strtol_r
 .text._sungetc_r
                0x020157e8       0x8c c:/code/devkitpro/devkitarm/bin/../lib/gcc/arm-none-eabi/6.3.0/../../../../arm-none-eabi/lib/thumb\libg.a(lib_a-svfiscanf.o)
                0x020157e8                _sungetc_r
 .text.__ssrefill_r
                0x02015874       0x44 c:/code/devkitpro/devkitarm/bin/../lib/gcc/arm-none-eabi/6.3.0/../../../../arm-none-eabi/lib/thumb\libg.a(lib_a-svfiscanf.o)
                0x02015874                __ssrefill_r
 .text._sfread_r
                0x020158b8       0x90 c:/code/devkitpro/devkitarm/bin/../lib/gcc/arm-none-eabi/6.3.0/../../../../arm-none-eabi/lib/thumb\libg.a(lib_a-svfiscanf.o)
                0x020158b8                _sfread_r
 .text.__ssvfiscanf_r
                0x02015948     0x13e0 c:/code/devkitpro/devkitarm/bin/../lib/gcc/arm-none-eabi/6.3.0/../../../../arm-none-eabi/lib/thumb\libg.a(lib_a-svfiscanf.o)
                0x02015948                __ssvfiscanf_r
 .text.get_arg  0x02016d28      0xc4c c:/code/devkitpro/devkitarm/bin/../lib/gcc/arm-none-eabi/6.3.0/../../../../arm-none-eabi/lib/thumb\libg.a(lib_a-svfprintf.o)
 .text._svfprintf_r
                0x02017974     0x2d98 c:/code/devkitpro/devkitarm/bin/../lib/gcc/arm-none-eabi/6.3.0/../../../../arm-none-eabi/lib/thumb\libg.a(lib_a-svfprintf.o)
                0x02017974                _svfprintf_r
 .text.lseek    0x0201a70c       0x24 c:/code/devkitpro/devkitarm/bin/../lib/gcc/arm-none-eabi/6.3.0/../../../../arm-none-eabi/lib/thumb\libg.a(lib_a-syslseek.o)
                0x0201a70c                lseek
 .text.open     0x0201a730       0x28 c:/code/devkitpro/devkitarm/bin/../lib/gcc/arm-none-eabi/6.3.0/../../../../arm-none-eabi/lib/thumb\libg.a(lib_a-sysopen.o)
                0x0201a730                open
 .text.read     0x0201a758       0x1c c:/code/devkitpro/devkitarm/bin/../lib/gcc/arm-none-eabi/6.3.0/../../../../arm-none-eabi/lib/thumb\libg.a(lib_a-sysread.o)
                0x0201a758                read
 .text.time     0x0201a774       0x2c c:/code/devkitpro/devkitarm/bin/../lib/gcc/arm-none-eabi/6.3.0/../../../../arm-none-eabi/lib/thumb\libg.a(lib_a-time.o)
                0x0201a774                time
 .text.towlower
                0x0201a7a0      0x790 c:/code/devkitpro/devkitarm/bin/../lib/gcc/arm-none-eabi/6.3.0/../../../../arm-none-eabi/lib/thumb\libg.a(lib_a-towlower.o)
                0x0201a7a0                towlower
 .text.towupper
                0x0201af30      0x934 c:/code/devkitpro/devkitarm/bin/../lib/gcc/arm-none-eabi/6.3.0/../../../../arm-none-eabi/lib/thumb\libg.a(lib_a-towupper.o)
                0x0201af30                towupper
 .text.__tzcalc_limits
                0x0201b864      0x1a0 c:/code/devkitpro/devkitarm/bin/../lib/gcc/arm-none-eabi/6.3.0/../../../../arm-none-eabi/lib/thumb\libg.a(lib_a-tzcalc_limits.o)
                0x0201b864                __tzcalc_limits
 .text.__tz_lock
                0x0201ba04       0x14 c:/code/devkitpro/devkitarm/bin/../lib/gcc/arm-none-eabi/6.3.0/../../../../arm-none-eabi/lib/thumb\libg.a(lib_a-tzlock.o)
                0x0201ba04                __tz_lock
 .text.__tz_unlock
                0x0201ba18       0x14 c:/code/devkitpro/devkitarm/bin/../lib/gcc/arm-none-eabi/6.3.0/../../../../arm-none-eabi/lib/thumb\libg.a(lib_a-tzlock.o)
                0x0201ba18                __tz_unlock
 .text._tzset_unlocked
                0x0201ba2c       0x10 c:/code/devkitpro/devkitarm/bin/../lib/gcc/arm-none-eabi/6.3.0/../../../../arm-none-eabi/lib/thumb\libg.a(lib_a-tzset.o)
                0x0201ba2c                _tzset_unlocked
 .text._tzset_unlocked_r
                0x0201ba3c      0x378 c:/code/devkitpro/devkitarm/bin/../lib/gcc/arm-none-eabi/6.3.0/../../../../arm-none-eabi/lib/thumb\libg.a(lib_a-tzset_r.o)
                0x0201ba3c                _tzset_unlocked_r
 .text.__submore
                0x0201bdb4       0x88 c:/code/devkitpro/devkitarm/bin/../lib/gcc/arm-none-eabi/6.3.0/../../../../arm-none-eabi/lib/thumb\libg.a(lib_a-ungetc.o)
                0x0201bdb4                __submore
 .text.get_arg  0x0201be3c      0xc4c c:/code/devkitpro/devkitarm/bin/../lib/gcc/arm-none-eabi/6.3.0/../../../../arm-none-eabi/lib/thumb\libg.a(lib_a-vfiprintf.o)
 .text.__sprint_r.part.0
                0x0201ca88       0x14 c:/code/devkitpro/devkitarm/bin/../lib/gcc/arm-none-eabi/6.3.0/../../../../arm-none-eabi/lib/thumb\libg.a(lib_a-vfiprintf.o)
 .text._vfiprintf_r
                0x0201ca9c     0x1e0c c:/code/devkitpro/devkitarm/bin/../lib/gcc/arm-none-eabi/6.3.0/../../../../arm-none-eabi/lib/thumb\libg.a(lib_a-vfiprintf.o)
                0x0201ca9c                _vfiprintf_r
 .text.__sbprintf
                0x0201e8a8       0x8c c:/code/devkitpro/devkitarm/bin/../lib/gcc/arm-none-eabi/6.3.0/../../../../arm-none-eabi/lib/thumb\libg.a(lib_a-vfiprintf.o)
 .text._wcrtomb_r
                0x0201e934       0x80 c:/code/devkitpro/devkitarm/bin/../lib/gcc/arm-none-eabi/6.3.0/../../../../arm-none-eabi/lib/thumb\libg.a(lib_a-wcrtomb.o)
                0x0201e934                _wcrtomb_r
 .text.wcrtomb  0x0201e9b4       0x84 c:/code/devkitpro/devkitarm/bin/../lib/gcc/arm-none-eabi/6.3.0/../../../../arm-none-eabi/lib/thumb\libg.a(lib_a-wcrtomb.o)
                0x0201e9b4                wcrtomb
 .text._wcsrtombs_r
                0x0201ea38       0x1c c:/code/devkitpro/devkitarm/bin/../lib/gcc/arm-none-eabi/6.3.0/../../../../arm-none-eabi/lib/thumb\libg.a(lib_a-wcsrtombs.o)
                0x0201ea38                _wcsrtombs_r
 .text.wctob    0x0201ea54       0x58 c:/code/devkitpro/devkitarm/bin/../lib/gcc/arm-none-eabi/6.3.0/../../../../arm-none-eabi/lib/thumb\libg.a(lib_a-wctob.o)
                0x0201ea54                wctob
 .text.__utf8_wctomb
                0x0201eaac       0xbc c:/code/devkitpro/devkitarm/bin/../lib/gcc/arm-none-eabi/6.3.0/../../../../arm-none-eabi/lib/thumb\libg.a(lib_a-wctomb_r.o)
                0x0201eaac                __utf8_wctomb
 .text.__swsetup_r
                0x0201eb68       0xd8 c:/code/devkitpro/devkitarm/bin/../lib/gcc/arm-none-eabi/6.3.0/../../../../arm-none-eabi/lib/thumb\libg.a(lib_a-wsetup.o)
                0x0201eb68                __swsetup_r
 .text.div      0x0201ec40       0x40 c:/code/devkitpro/devkitarm/bin/../lib/gcc/arm-none-eabi/6.3.0/../../../../arm-none-eabi/lib/thumb\libg.a(lib_a-div.o)
                0x0201ec40                div
 .text.quorem   0x0201ec80      0x15c c:/code/devkitpro/devkitarm/bin/../lib/gcc/arm-none-eabi/6.3.0/../../../../arm-none-eabi/lib/thumb\libg.a(lib_a-dtoa.o)
 .text._dtoa_r  0x0201eddc      0xfd0 c:/code/devkitpro/devkitarm/bin/../lib/gcc/arm-none-eabi/6.3.0/../../../../arm-none-eabi/lib/thumb\libg.a(lib_a-dtoa.o)
                0x0201eddc                _dtoa_r
 .text.__sflags
                0x0201fdac       0xa0 c:/code/devkitpro/devkitarm/bin/../lib/gcc/arm-none-eabi/6.3.0/../../../../arm-none-eabi/lib/thumb\libg.a(lib_a-flags.o)
                0x0201fdac                __sflags
 .text.__sfvwrite_r
                0x0201fe4c      0x334 c:/code/devkitpro/devkitarm/bin/../lib/gcc/arm-none-eabi/6.3.0/../../../../arm-none-eabi/lib/thumb\libg.a(lib_a-fvwrite.o)
                0x0201fe4c                __sfvwrite_r
 .text._findenv_r
                0x02020180       0x98 c:/code/devkitpro/devkitarm/bin/../lib/gcc/arm-none-eabi/6.3.0/../../../../arm-none-eabi/lib/thumb\libg.a(lib_a-getenv_r.o)
                0x02020180                _findenv_r
 .text._getenv_r
                0x02020218       0x10 c:/code/devkitpro/devkitarm/bin/../lib/gcc/arm-none-eabi/6.3.0/../../../../arm-none-eabi/lib/thumb\libg.a(lib_a-getenv_r.o)
                0x02020218                _getenv_r
 .text.__gettzinfo
                0x02020228        0x8 c:/code/devkitpro/devkitarm/bin/../lib/gcc/arm-none-eabi/6.3.0/../../../../arm-none-eabi/lib/thumb\libg.a(lib_a-gettzinfo.o)
                0x02020228                __gettzinfo
 .text.gmtime_r
                0x02020230      0x1a4 c:/code/devkitpro/devkitarm/bin/../lib/gcc/arm-none-eabi/6.3.0/../../../../arm-none-eabi/lib/thumb\libg.a(lib_a-gmtime_r.o)
                0x02020230                gmtime_r
 .text.iswspace
                0x020203d4       0x78 c:/code/devkitpro/devkitarm/bin/../lib/gcc/arm-none-eabi/6.3.0/../../../../arm-none-eabi/lib/thumb\libg.a(lib_a-iswspace.o)
                0x020203d4                iswspace
 .text.__jp2uc  0x0202044c      0x188 c:/code/devkitpro/devkitarm/bin/../lib/gcc/arm-none-eabi/6.3.0/../../../../arm-none-eabi/lib/thumb\libg.a(lib_a-jp2uc.o)
 .text._jp2uc   0x020205d4       0x8c c:/code/devkitpro/devkitarm/bin/../lib/gcc/arm-none-eabi/6.3.0/../../../../arm-none-eabi/lib/thumb\libg.a(lib_a-jp2uc.o)
                0x020205d4                _jp2uc
 .text._localeconv_r
                0x02020660       0x1c c:/code/devkitpro/devkitarm/bin/../lib/gcc/arm-none-eabi/6.3.0/../../../../arm-none-eabi/lib/thumb\libg.a(lib_a-localeconv.o)
                0x02020660                _localeconv_r
 .text._mbsnrtowcs_r
                0x0202067c       0xc0 c:/code/devkitpro/devkitarm/bin/../lib/gcc/arm-none-eabi/6.3.0/../../../../arm-none-eabi/lib/thumb\libg.a(lib_a-mbsnrtowcs.o)
                0x0202067c                _mbsnrtowcs_r
 .text.memchr   0x0202073c       0x84 c:/code/devkitpro/devkitarm/bin/../lib/gcc/arm-none-eabi/6.3.0/../../../../arm-none-eabi/lib/thumb\libg.a(lib_a-memchr-stub.o)
                0x0202073c                memchr
 .text._Balloc  0x020207c0       0x54 c:/code/devkitpro/devkitarm/bin/../lib/gcc/arm-none-eabi/6.3.0/../../../../arm-none-eabi/lib/thumb\libg.a(lib_a-mprec.o)
                0x020207c0                _Balloc
 .text._Bfree   0x02020814       0x14 c:/code/devkitpro/devkitarm/bin/../lib/gcc/arm-none-eabi/6.3.0/../../../../arm-none-eabi/lib/thumb\libg.a(lib_a-mprec.o)
                0x02020814                _Bfree
 .text.__multadd
                0x02020828       0x94 c:/code/devkitpro/devkitarm/bin/../lib/gcc/arm-none-eabi/6.3.0/../../../../arm-none-eabi/lib/thumb\libg.a(lib_a-mprec.o)
                0x02020828                __multadd
 .text.__hi0bits
                0x020208bc       0x34 c:/code/devkitpro/devkitarm/bin/../lib/gcc/arm-none-eabi/6.3.0/../../../../arm-none-eabi/lib/thumb\libg.a(lib_a-mprec.o)
                0x020208bc                __hi0bits
 .text.__lo0bits
                0x020208f0       0x5c c:/code/devkitpro/devkitarm/bin/../lib/gcc/arm-none-eabi/6.3.0/../../../../arm-none-eabi/lib/thumb\libg.a(lib_a-mprec.o)
                0x020208f0                __lo0bits
 .text.__i2b    0x0202094c       0x18 c:/code/devkitpro/devkitarm/bin/../lib/gcc/arm-none-eabi/6.3.0/../../../../arm-none-eabi/lib/thumb\libg.a(lib_a-mprec.o)
                0x0202094c                __i2b
 .text.__multiply
                0x02020964      0x160 c:/code/devkitpro/devkitarm/bin/../lib/gcc/arm-none-eabi/6.3.0/../../../../arm-none-eabi/lib/thumb\libg.a(lib_a-mprec.o)
                0x02020964                __multiply
 .text.__pow5mult
                0x02020ac4       0xc4 c:/code/devkitpro/devkitarm/bin/../lib/gcc/arm-none-eabi/6.3.0/../../../../arm-none-eabi/lib/thumb\libg.a(lib_a-mprec.o)
                0x02020ac4                __pow5mult
 .text.__lshift
                0x02020b88       0xc4 c:/code/devkitpro/devkitarm/bin/../lib/gcc/arm-none-eabi/6.3.0/../../../../arm-none-eabi/lib/thumb\libg.a(lib_a-mprec.o)
                0x02020b88                __lshift
 .text.__mcmp   0x02020c4c       0x38 c:/code/devkitpro/devkitarm/bin/../lib/gcc/arm-none-eabi/6.3.0/../../../../arm-none-eabi/lib/thumb\libg.a(lib_a-mprec.o)
                0x02020c4c                __mcmp
 .text.__mdiff  0x02020c84      0x13c c:/code/devkitpro/devkitarm/bin/../lib/gcc/arm-none-eabi/6.3.0/../../../../arm-none-eabi/lib/thumb\libg.a(lib_a-mprec.o)
                0x02020c84                __mdiff
 .text.__d2b    0x02020dc0       0xc0 c:/code/devkitpro/devkitarm/bin/../lib/gcc/arm-none-eabi/6.3.0/../../../../arm-none-eabi/lib/thumb\libg.a(lib_a-mprec.o)
                0x02020dc0                __d2b
 .text.__sccl   0x02020e80       0x78 c:/code/devkitpro/devkitarm/bin/../lib/gcc/arm-none-eabi/6.3.0/../../../../arm-none-eabi/lib/thumb\libg.a(lib_a-sccl.o)
                0x02020e80                __sccl
 .text.frexp    0x02020ef8       0x68 c:/code/devkitpro/devkitarm/bin/../lib/gcc/arm-none-eabi/6.3.0/../../../../arm-none-eabi/lib/thumb\libg.a(lib_a-s_frexp.o)
                0x02020ef8                frexp
 .text._strtoll_l.isra.0
                0x02020f60      0x1f0 c:/code/devkitpro/devkitarm/bin/../lib/gcc/arm-none-eabi/6.3.0/../../../../arm-none-eabi/lib/thumb\libg.a(lib_a-strtoll.o)
 .text._strtoll_r
                0x02021150       0x34 c:/code/devkitpro/devkitarm/bin/../lib/gcc/arm-none-eabi/6.3.0/../../../../arm-none-eabi/lib/thumb\libg.a(lib_a-strtoll.o)
                0x02021150                _strtoll_r
 .text._strtoull_l.isra.0
                0x02021184      0x1c8 c:/code/devkitpro/devkitarm/bin/../lib/gcc/arm-none-eabi/6.3.0/../../../../arm-none-eabi/lib/thumb\libg.a(lib_a-strtoull.o)
 .text._strtoull_r
                0x0202134c       0x34 c:/code/devkitpro/devkitarm/bin/../lib/gcc/arm-none-eabi/6.3.0/../../../../arm-none-eabi/lib/thumb\libg.a(lib_a-strtoull.o)
                0x0202134c                _strtoull_r
 .text._strtoul_l.isra.0
                0x02021380      0x14c c:/code/devkitpro/devkitarm/bin/../lib/gcc/arm-none-eabi/6.3.0/../../../../arm-none-eabi/lib/thumb\libg.a(lib_a-strtoul.o)
 .text._strtoul_r
                0x020214cc       0x34 c:/code/devkitpro/devkitarm/bin/../lib/gcc/arm-none-eabi/6.3.0/../../../../arm-none-eabi/lib/thumb\libg.a(lib_a-strtoul.o)
                0x020214cc                _strtoul_r
 .text.strtoul  0x02021500       0x38 c:/code/devkitpro/devkitarm/bin/../lib/gcc/arm-none-eabi/6.3.0/../../../../arm-none-eabi/lib/thumb\libg.a(lib_a-strtoul.o)
                0x02021500                strtoul
 .text.__ssprint_r
                0x02021538      0x124 c:/code/devkitpro/devkitarm/bin/../lib/gcc/arm-none-eabi/6.3.0/../../../../arm-none-eabi/lib/thumb\libg.a(lib_a-svfiprintf.o)
                0x02021538                __ssprint_r
 .text._wcsnrtombs_l
                0x0202165c      0x11c c:/code/devkitpro/devkitarm/bin/../lib/gcc/arm-none-eabi/6.3.0/../../../../arm-none-eabi/lib/thumb\libg.a(lib_a-wcsnrtombs.o)
                0x0202165c                _wcsnrtombs_l
 .text._wcsnrtombs_r
                0x02021778       0x40 c:/code/devkitpro/devkitarm/bin/../lib/gcc/arm-none-eabi/6.3.0/../../../../arm-none-eabi/lib/thumb\libg.a(lib_a-wcsnrtombs.o)
                0x02021778                _wcsnrtombs_r
 .text.__env_lock
                0x020217b8       0x14 c:/code/devkitpro/devkitarm/bin/../lib/gcc/arm-none-eabi/6.3.0/../../../../arm-none-eabi/lib/thumb\libg.a(lib_a-envlock.o)
                0x020217b8                __env_lock
 .text.__env_unlock
                0x020217cc       0x14 c:/code/devkitpro/devkitarm/bin/../lib/gcc/arm-none-eabi/6.3.0/../../../../arm-none-eabi/lib/thumb\libg.a(lib_a-envlock.o)
                0x020217cc                __env_unlock
 .text.null_write
                0x020217e0        0x4 c:/code/devkitpro/devkitarm/bin/../lib/gcc/arm-none-eabi/6.3.0/../../../../arm-none-eabi/lib/thumb\libsysbase.a(iosupport.o)
 .text.setDefaultDevice
                0x020217e4       0x10 c:/code/devkitpro/devkitarm/bin/../lib/gcc/arm-none-eabi/6.3.0/../../../../arm-none-eabi/lib/thumb\libsysbase.a(iosupport.o)
                0x020217e4                setDefaultDevice
 .text.FindDevice
                0x020217f4       0x94 c:/code/devkitpro/devkitarm/bin/../lib/gcc/arm-none-eabi/6.3.0/../../../../arm-none-eabi/lib/thumb\libsysbase.a(iosupport.o)
                0x020217f4                FindDevice
 .text.AddDevice
                0x02021888       0x78 c:/code/devkitpro/devkitarm/bin/../lib/gcc/arm-none-eabi/6.3.0/../../../../arm-none-eabi/lib/thumb\libsysbase.a(iosupport.o)
                0x02021888                AddDevice
 .text.GetDeviceOpTab
                0x02021900       0x20 c:/code/devkitpro/devkitarm/bin/../lib/gcc/arm-none-eabi/6.3.0/../../../../arm-none-eabi/lib/thumb\libsysbase.a(iosupport.o)
                0x02021900                GetDeviceOpTab
 .text._close_r
                0x02021920       0x5c c:/code/devkitpro/devkitarm/bin/../lib/gcc/arm-none-eabi/6.3.0/../../../../arm-none-eabi/lib/thumb\libsysbase.a(close.o)
                0x02021920                _close_r
 .text._fstat_r
                0x0202197c       0x4c c:/code/devkitpro/devkitarm/bin/../lib/gcc/arm-none-eabi/6.3.0/../../../../arm-none-eabi/lib/thumb\libsysbase.a(fstat.o)
                0x0202197c                _fstat_r
 .text._gettimeofday_r
                0x020219c8       0x28 c:/code/devkitpro/devkitarm/bin/../lib/gcc/arm-none-eabi/6.3.0/../../../../arm-none-eabi/lib/thumb\libsysbase.a(gettod.o)
                0x020219c8                _gettimeofday_r
 .text._isatty_r
                0x020219f0        0x4 c:/code/devkitpro/devkitarm/bin/../lib/gcc/arm-none-eabi/6.3.0/../../../../arm-none-eabi/lib/thumb\libsysbase.a(isatty.o)
                0x020219f0                _isatty_r
 .text._lseek_r
                0x020219f4       0x5c c:/code/devkitpro/devkitarm/bin/../lib/gcc/arm-none-eabi/6.3.0/../../../../arm-none-eabi/lib/thumb\libsysbase.a(lseek.o)
                0x020219f4                _lseek_r
 .text._open_r  0x02021a50       0x94 c:/code/devkitpro/devkitarm/bin/../lib/gcc/arm-none-eabi/6.3.0/../../../../arm-none-eabi/lib/thumb\libsysbase.a(open.o)
                0x02021a50                _open_r
 .text._read_r  0x02021ae4       0x50 c:/code/devkitpro/devkitarm/bin/../lib/gcc/arm-none-eabi/6.3.0/../../../../arm-none-eabi/lib/thumb\libsysbase.a(read.o)
                0x02021ae4                _read_r
 .text._sbrk_r  0x02021b34       0x54 c:/code/devkitpro/devkitarm/bin/../lib/gcc/arm-none-eabi/6.3.0/../../../../arm-none-eabi/lib/thumb\libsysbase.a(sbrk.o)
                0x02021b34                _sbrk_r
 .text._write_r
                0x02021b88       0x50 c:/code/devkitpro/devkitarm/bin/../lib/gcc/arm-none-eabi/6.3.0/../../../../arm-none-eabi/lib/thumb\libsysbase.a(write.o)
                0x02021b88                _write_r
 .text._concatenate_path
                0x02021bd8      0x144 c:/code/devkitpro/devkitarm/bin/../lib/gcc/arm-none-eabi/6.3.0/../../../../arm-none-eabi/lib/thumb\libsysbase.a(chdir.o)
                0x02021bd8                _concatenate_path
 .text.chdir    0x02021d1c       0xf4 c:/code/devkitpro/devkitarm/bin/../lib/gcc/arm-none-eabi/6.3.0/../../../../arm-none-eabi/lib/thumb\libsysbase.a(chdir.o)
                0x02021d1c                chdir
 .text.getcwd   0x02021e10       0x60 c:/code/devkitpro/devkitarm/bin/../lib/gcc/arm-none-eabi/6.3.0/../../../../arm-none-eabi/lib/thumb\libsysbase.a(chdir.o)
                0x02021e10                getcwd
 .text.build_argv
                0x02021e70       0x4c c:/code/devkitpro/devkitarm/bin/../lib/gcc/arm-none-eabi/6.3.0/../../../../arm-none-eabi/lib/thumb\libsysbase.a(build_argv.o)
                0x02021e70                build_argv
 .text.__flockfile
                0x02021ebc       0x10 c:/code/devkitpro/devkitarm/bin/../lib/gcc/arm-none-eabi/6.3.0/../../../../arm-none-eabi/lib/thumb\libsysbase.a(flock.o)
                0x02021ebc                __flockfile
 .text.__funlockfile
                0x02021ecc       0x10 c:/code/devkitpro/devkitarm/bin/../lib/gcc/arm-none-eabi/6.3.0/../../../../arm-none-eabi/lib/thumb\libsysbase.a(flock.o)
                0x02021ecc                __funlockfile
 .text.__libc_lock_acquire
                0x02021edc       0x1c c:/code/devkitpro/devkitarm/bin/../lib/gcc/arm-none-eabi/6.3.0/../../../../arm-none-eabi/lib/thumb\libsysbase.a(syscall_support.o)
                0x02021edc                __libc_lock_acquire
 .text.__libc_lock_release
                0x02021ef8       0x1c c:/code/devkitpro/devkitarm/bin/../lib/gcc/arm-none-eabi/6.3.0/../../../../arm-none-eabi/lib/thumb\libsysbase.a(syscall_support.o)
                0x02021ef8                __libc_lock_release
 .text.__libc_lock_init_recursive
                0x02021f14       0x1c c:/code/devkitpro/devkitarm/bin/../lib/gcc/arm-none-eabi/6.3.0/../../../../arm-none-eabi/lib/thumb\libsysbase.a(syscall_support.o)
                0x02021f14                __libc_lock_init_recursive
 .text.__libc_lock_acquire_recursive
                0x02021f30       0x1c c:/code/devkitpro/devkitarm/bin/../lib/gcc/arm-none-eabi/6.3.0/../../../../arm-none-eabi/lib/thumb\libsysbase.a(syscall_support.o)
                0x02021f30                __libc_lock_acquire_recursive
 .text.__libc_lock_release_recursive
                0x02021f4c       0x1c c:/code/devkitpro/devkitarm/bin/../lib/gcc/arm-none-eabi/6.3.0/../../../../arm-none-eabi/lib/thumb\libsysbase.a(syscall_support.o)
                0x02021f4c                __libc_lock_release_recursive
 .text.__libc_lock_close_recursive
                0x02021f68       0x1c c:/code/devkitpro/devkitarm/bin/../lib/gcc/arm-none-eabi/6.3.0/../../../../arm-none-eabi/lib/thumb\libsysbase.a(syscall_support.o)
                0x02021f68                __libc_lock_close_recursive
 .text.__free_handle
                0x02021f84       0x3c c:/code/devkitpro/devkitarm/bin/../lib/gcc/arm-none-eabi/6.3.0/../../../../arm-none-eabi/lib/thumb\libsysbase.a(handle_manager.o)
                0x02021f84                __free_handle
 .text.__release_handle
                0x02021fc0       0x38 c:/code/devkitpro/devkitarm/bin/../lib/gcc/arm-none-eabi/6.3.0/../../../../arm-none-eabi/lib/thumb\libsysbase.a(handle_manager.o)
                0x02021fc0                __release_handle
 .text.__alloc_handle
                0x02021ff8       0x80 c:/code/devkitpro/devkitarm/bin/../lib/gcc/arm-none-eabi/6.3.0/../../../../arm-none-eabi/lib/thumb\libsysbase.a(handle_manager.o)
                0x02021ff8                __alloc_handle
 .text.__get_handle
                0x02022078       0x1c c:/code/devkitpro/devkitarm/bin/../lib/gcc/arm-none-eabi/6.3.0/../../../../arm-none-eabi/lib/thumb\libsysbase.a(handle_manager.o)
                0x02022078                __get_handle
 .text.__getreent
                0x02022094       0x28 c:/code/devkitpro/devkitarm/bin/../lib/gcc/arm-none-eabi/6.3.0/../../../../arm-none-eabi/lib/thumb\libsysbase.a(getreent.o)
                0x02022094                __getreent
 .text.__errno  0x020220bc        0xc c:/code/devkitpro/devkitarm/bin/../lib/gcc/arm-none-eabi/6.3.0/../../../../arm-none-eabi/lib/thumb\libg.a(lib_a-errno.o)
                0x020220bc                __errno
 .text.__errno.__stub
                0x020220c8      0x110 linker stubs
 *(EXCLUDE_FILE(*.twl*) .gnu.warning)
 *(EXCLUDE_FILE(*.twl*) .gnu.linkonce.t*)
 *(.glue_7)
 .glue_7        0x020221e8        0x0 linker stubs
 *(.glue_7t)
 .glue_7t       0x020221e8        0x0 linker stubs
                0x020221e8                . = ALIGN (0x4)

.vfp11_veneer   0x020221e8        0x0
 .vfp11_veneer  0x020221e8        0x0 linker stubs

.v4_bx          0x020221e8        0x0
 .v4_bx         0x020221e8        0x0 linker stubs

.iplt           0x020221e8        0x0
 .iplt          0x020221e8        0x0 c:/code/devkitpro/devkitarm/bin/../lib/gcc/arm-none-eabi/6.3.0/../../../../arm-none-eabi/lib/thumb/ds_arm9_crt0.o

.fini           0x020221e8        0xc
 *(.fini)
 .fini          0x020221e8        0x4 c:/code/devkitpro/devkitarm/bin/../lib/gcc/arm-none-eabi/6.3.0/thumb/crti.o
                0x020221e8                _fini
 .fini          0x020221ec        0x8 c:/code/devkitpro/devkitarm/bin/../lib/gcc/arm-none-eabi/6.3.0/thumb/crtn.o
                0x020221f4                __text_end = .

.rodata         0x020221f8     0x89d0
 *(EXCLUDE_FILE(*.twl*) .rodata)
 .rodata        0x020221f8       0x50 d:/Work/NDS/projects/NFlib/nflib/examples/3dsprites/animation/nflib/lib\libnflib.a(nf_basic.o)
 .rodata        0x02022248     0x2004 c:/code/devkitPro/libnds/lib\libnds9.a(default_font.bin.o)
                0x02022248                default_font_bin
                0x02024248                default_font_bin_size
                0x02024248                default_font_bin_end
 *all.rodata*(*)
 *(EXCLUDE_FILE(*.twl*) .roda)
 *(EXCLUDE_FILE(*.twl*) .rodata.*)
 .rodata.str1.4
                0x0202424c       0x7b main.o
 *fill*         0x020242c7        0x1 ff
 .rodata.str1.4
                0x020242c8       0x27 d:/Work/NDS/projects/NFlib/nflib/examples/3dsprites/animation/nflib/lib\libnflib.a(nf_2d.o)
 *fill*         0x020242ef        0x1 ff
 .rodata.str1.4
                0x020242f0      0x613 d:/Work/NDS/projects/NFlib/nflib/examples/3dsprites/animation/nflib/lib\libnflib.a(nf_basic.o)
                                0x627 (size before relaxing)
 *fill*         0x02024903        0x1 ff
 .rodata.str1.4
                0x02024904       0x70 d:/Work/NDS/projects/NFlib/nflib/examples/3dsprites/animation/nflib/lib\libnflib.a(nf_sprite256.o)
                                 0x7b (size before relaxing)
 .rodata.str1.4
                0x02024974       0x47 d:/Work/NDS/projects/NFlib/nflib/examples/3dsprites/animation/nflib/lib\libnflib.a(nf_sprite3d.o)
                                 0xa9 (size before relaxing)
 *fill*         0x020249bb        0x1 ff
 .rodata.str1.4
                0x020249bc       0x4c d:/Work/NDS/projects/NFlib/nflib/examples/3dsprites/animation/nflib/lib\libnflib.a(nf_tiledbg.o)
                                 0x6c (size before relaxing)
 .rodata.nitroFSInit.str1.4
                0x02024a08        0x7 c:/code/devkitPro/libnds/lib\libfilesystem.a(nitrofs.o)
                                 0x10 (size before relaxing)
 *fill*         0x02024a0f        0x1 ff
 .rodata.str1.4
                0x02024a10        0xe c:/code/devkitPro/libnds/lib\libfilesystem.a(nitrofs.o)
 *fill*         0x02024a1e        0x2 ff
 .rodata.dotab_fat
                0x02024a20       0x68 c:/code/devkitPro/libnds/lib\libfat.a(libfat.o)
 .rodata.fatInit.str1.4
                0x02024a88        0x3 c:/code/devkitPro/libnds/lib\libfat.a(libfat.o)
 *fill*         0x02024a8b        0x1 ff
 .rodata.fatMount.str1.4
                0x02024a8c        0x2 c:/code/devkitPro/libnds/lib\libfat.a(libfat.o)
 .rodata.str1.4
                0x02024a8e        0x4 c:/code/devkitPro/libnds/lib\libfat.a(libfat.o)
 *fill*         0x02024a8e        0x2 ff
 .rodata.FAT_SIG
                0x02024a90        0x3 c:/code/devkitPro/libnds/lib\libfat.a(partition.o)
 *fill*         0x02024a93        0x1 ff
 .rodata.FS_INFO_SIG1
                0x02024a94        0x4 c:/code/devkitPro/libnds/lib\libfat.a(partition.o)
 .rodata.FS_INFO_SIG2
                0x02024a98        0x4 c:/code/devkitPro/libnds/lib\libfat.a(partition.o)
 .rodata._FAT_statvfs_r.str1.4
                0x02024a9c        0x5 c:/code/devkitPro/libnds/lib\libfat.a(fatdir.o)
 *fill*         0x02024aa1        0x3 ff
 .rodata._FAT_disc_interfaces
                0x02024aa4       0x18 c:/code/devkitPro/libnds/lib\libfat.a(disc.o)
                0x02024aa4                _FAT_disc_interfaces
 .rodata.str1.4
                0x02024abc        0x8 c:/code/devkitPro/libnds/lib\libfat.a(disc.o)
 .rodata.ILLEGAL_ALIAS_CHARACTERS
                0x02024abc       0x12 c:/code/devkitPro/libnds/lib\libfat.a(directory.o)
 *fill*         0x02024ace        0x2 ff
 .rodata.ILLEGAL_LFN_CHARACTERS
                0x02024ad0        0xa c:/code/devkitPro/libnds/lib\libfat.a(directory.o)
 *fill*         0x02024ada        0x2 ff
 .rodata.LFN_offset_table
                0x02024adc       0x34 c:/code/devkitPro/libnds/lib\libfat.a(directory.o)
 .rodata._FAT_directory_entryFromPath.str1.4
                0x02024b10        0x7 c:/code/devkitPro/libnds/lib\libfat.a(directory.o)
 .rodata.con_write
                0x02024b10       0xd4 c:/code/devkitPro/libnds/lib\libnds9.a(console.o)
 .rodata.con_write.str1.4
                0x02024be4       0x30 c:/code/devkitPro/libnds/lib\libnds9.a(console.o)
 .rodata.consoleClear.str1.4
                0x02024c14        0x5 c:/code/devkitPro/libnds/lib\libnds9.a(console.o)
 *fill*         0x02024c19        0x3 ff
 .rodata.dotab_stdout
                0x02024c1c       0x68 c:/code/devkitPro/libnds/lib\libnds9.a(console.o)
 .rodata.str1.4
                0x02024c84       0x14 c:/code/devkitPro/libnds/lib\libnds9.a(console.o)
 .rodata.SIN_LUT
                0x02024c98      0x102 c:/code/devkitPro/libnds/lib\libnds9.a(trig.o)
                0x02024c98                SIN_LUT
 *fill*         0x02024d9a        0x2 ff
 .rodata._global_impure_ptr
                0x02024d9c        0x4 c:/code/devkitpro/devkitarm/bin/../lib/gcc/arm-none-eabi/6.3.0/../../../../arm-none-eabi/lib/thumb\libg.a(lib_a-impure.o)
                0x02024d9c                _global_impure_ptr
 .rodata.str1.4
                0x02024da0       0x44 c:/code/devkitpro/devkitarm/bin/../lib/gcc/arm-none-eabi/6.3.0/../../../../arm-none-eabi/lib/thumb\libg.a(lib_a-locale.o)
                                 0x4c (size before relaxing)
 .rodata._mbrtowc_r.str1.4
                0x02024de4        0x1 c:/code/devkitpro/devkitarm/bin/../lib/gcc/arm-none-eabi/6.3.0/../../../../arm-none-eabi/lib/thumb\libg.a(lib_a-mbrtowc.o)
 .rodata.DAYS_IN_MONTH
                0x02024de4       0x30 c:/code/devkitpro/devkitarm/bin/../lib/gcc/arm-none-eabi/6.3.0/../../../../arm-none-eabi/lib/thumb\libg.a(lib_a-mktime.o)
 .rodata._DAYS_BEFORE_MONTH
                0x02024e14       0x30 c:/code/devkitpro/devkitarm/bin/../lib/gcc/arm-none-eabi/6.3.0/../../../../arm-none-eabi/lib/thumb\libg.a(lib_a-mktime.o)
 .rodata.__month_lengths
                0x02024e44       0x60 c:/code/devkitpro/devkitarm/bin/../lib/gcc/arm-none-eabi/6.3.0/../../../../arm-none-eabi/lib/thumb\libg.a(lib_a-month_lengths.o)
                0x02024e44                __month_lengths
 .rodata.__ssvfiscanf_r
                0x02024ea4      0x324 c:/code/devkitpro/devkitarm/bin/../lib/gcc/arm-none-eabi/6.3.0/../../../../arm-none-eabi/lib/thumb\libg.a(lib_a-svfiscanf.o)
 .rodata.basefix.6811
                0x020251c8       0x22 c:/code/devkitpro/devkitarm/bin/../lib/gcc/arm-none-eabi/6.3.0/../../../../arm-none-eabi/lib/thumb\libg.a(lib_a-svfiscanf.o)
 *fill*         0x020251ea        0x2 ff
 .rodata.get_arg
                0x020251ec      0x938 c:/code/devkitpro/devkitarm/bin/../lib/gcc/arm-none-eabi/6.3.0/../../../../arm-none-eabi/lib/thumb\libg.a(lib_a-svfprintf.o)
 .rodata._svfprintf_r
                0x02025b24      0x16c c:/code/devkitpro/devkitarm/bin/../lib/gcc/arm-none-eabi/6.3.0/../../../../arm-none-eabi/lib/thumb\libg.a(lib_a-svfprintf.o)
 .rodata._svfprintf_r.str1.4
                0x02025c90       0x42 c:/code/devkitpro/devkitarm/bin/../lib/gcc/arm-none-eabi/6.3.0/../../../../arm-none-eabi/lib/thumb\libg.a(lib_a-svfprintf.o)
 *fill*         0x02025cd2        0x2 ff
 .rodata.blanks.7277
                0x02025cd4       0x10 c:/code/devkitpro/devkitarm/bin/../lib/gcc/arm-none-eabi/6.3.0/../../../../arm-none-eabi/lib/thumb\libg.a(lib_a-svfprintf.o)
 .rodata.zeroes.7278
                0x02025ce4       0x10 c:/code/devkitpro/devkitarm/bin/../lib/gcc/arm-none-eabi/6.3.0/../../../../arm-none-eabi/lib/thumb\libg.a(lib_a-svfprintf.o)
 .rodata.towlower
                0x02025cf4      0x674 c:/code/devkitpro/devkitarm/bin/../lib/gcc/arm-none-eabi/6.3.0/../../../../arm-none-eabi/lib/thumb\libg.a(lib_a-towlower.o)
 .rodata.towupper
                0x02026368      0x2dc c:/code/devkitpro/devkitarm/bin/../lib/gcc/arm-none-eabi/6.3.0/../../../../arm-none-eabi/lib/thumb\libg.a(lib_a-towupper.o)
 .rodata.CSWTCH.1
                0x02026644      0x108 c:/code/devkitpro/devkitarm/bin/../lib/gcc/arm-none-eabi/6.3.0/../../../../arm-none-eabi/lib/thumb\libg.a(lib_a-towupper.o)
 .rodata._tzset_unlocked_r.str1.4
                0x0202674c       0x53 c:/code/devkitpro/devkitarm/bin/../lib/gcc/arm-none-eabi/6.3.0/../../../../arm-none-eabi/lib/thumb\libg.a(lib_a-tzset_r.o)
 .rodata.str1.4
                0x0202679f        0x4 c:/code/devkitpro/devkitarm/bin/../lib/gcc/arm-none-eabi/6.3.0/../../../../arm-none-eabi/lib/thumb\libg.a(lib_a-tzvars.o)
 *fill*         0x0202679f        0x1 ff
 .rodata.get_arg
                0x020267a0      0x938 c:/code/devkitpro/devkitarm/bin/../lib/gcc/arm-none-eabi/6.3.0/../../../../arm-none-eabi/lib/thumb\libg.a(lib_a-vfiprintf.o)
 .rodata._vfiprintf_r
                0x020270d8      0x16c c:/code/devkitpro/devkitarm/bin/../lib/gcc/arm-none-eabi/6.3.0/../../../../arm-none-eabi/lib/thumb\libg.a(lib_a-vfiprintf.o)
 .rodata._vfiprintf_r.str1.4
                0x02027244       0x2f c:/code/devkitpro/devkitarm/bin/../lib/gcc/arm-none-eabi/6.3.0/../../../../arm-none-eabi/lib/thumb\libg.a(lib_a-vfiprintf.o)
 .rodata.blanks.7260
                0x02027244       0x10 c:/code/devkitpro/devkitarm/bin/../lib/gcc/arm-none-eabi/6.3.0/../../../../arm-none-eabi/lib/thumb\libg.a(lib_a-vfiprintf.o)
 .rodata.zeroes.7261
                0x02027254       0x10 c:/code/devkitpro/devkitarm/bin/../lib/gcc/arm-none-eabi/6.3.0/../../../../arm-none-eabi/lib/thumb\libg.a(lib_a-vfiprintf.o)
 .rodata._ctype_
                0x02027264      0x101 c:/code/devkitpro/devkitarm/bin/../lib/gcc/arm-none-eabi/6.3.0/../../../../arm-none-eabi/lib/thumb\libg.a(lib_a-ctype_.o)
                0x02027264                _ctype_
 *fill*         0x02027365        0x3 ff
 .rodata._dtoa_r.str1.4
                0x02027368       0x10 c:/code/devkitpro/devkitarm/bin/../lib/gcc/arm-none-eabi/6.3.0/../../../../arm-none-eabi/lib/thumb\libg.a(lib_a-dtoa.o)
                                 0x12 (size before relaxing)
 .rodata.__jp2uc
                0x02027378       0x20 c:/code/devkitpro/devkitarm/bin/../lib/gcc/arm-none-eabi/6.3.0/../../../../arm-none-eabi/lib/thumb\libg.a(lib_a-jp2uc.o)
 .rodata._jp2uc.str1.4
                0x02027398       0x12 c:/code/devkitpro/devkitarm/bin/../lib/gcc/arm-none-eabi/6.3.0/../../../../arm-none-eabi/lib/thumb\libg.a(lib_a-jp2uc.o)
 *fill*         0x020273aa        0x2 ff
 .rodata.a1     0x020273ac       0xbc c:/code/devkitpro/devkitarm/bin/../lib/gcc/arm-none-eabi/6.3.0/../../../../arm-none-eabi/lib/thumb\libg.a(lib_a-jp2uc.o)
 .rodata.a2     0x02027468       0xbc c:/code/devkitpro/devkitarm/bin/../lib/gcc/arm-none-eabi/6.3.0/../../../../arm-none-eabi/lib/thumb\libg.a(lib_a-jp2uc.o)
 .rodata.a3     0x02027524       0x5b c:/code/devkitpro/devkitarm/bin/../lib/gcc/arm-none-eabi/6.3.0/../../../../arm-none-eabi/lib/thumb\libg.a(lib_a-jp2uc.o)
 *fill*         0x0202757f        0x1 ff
 .rodata.a6     0x02027580       0x70 c:/code/devkitpro/devkitarm/bin/../lib/gcc/arm-none-eabi/6.3.0/../../../../arm-none-eabi/lib/thumb\libg.a(lib_a-jp2uc.o)
 .rodata.a7     0x020275f0       0xa2 c:/code/devkitpro/devkitarm/bin/../lib/gcc/arm-none-eabi/6.3.0/../../../../arm-none-eabi/lib/thumb\libg.a(lib_a-jp2uc.o)
 *fill*         0x02027692        0x2 ff
 .rodata.a8     0x02027694       0x40 c:/code/devkitpro/devkitarm/bin/../lib/gcc/arm-none-eabi/6.3.0/../../../../arm-none-eabi/lib/thumb\libg.a(lib_a-jp2uc.o)
 .rodata.b02cf  0x020276d4     0x172a c:/code/devkitpro/devkitarm/bin/../lib/gcc/arm-none-eabi/6.3.0/../../../../arm-none-eabi/lib/thumb\libg.a(lib_a-jp2uc.o)
 *fill*         0x02028dfe        0x2 ff
 .rodata.d02f4  0x02028e00     0x1a7c c:/code/devkitpro/devkitarm/bin/../lib/gcc/arm-none-eabi/6.3.0/../../../../arm-none-eabi/lib/thumb\libg.a(lib_a-jp2uc.o)
 *fill*         0x0202a87c        0x4 ff
 .rodata.__mprec_bigtens
                0x0202a880       0x28 c:/code/devkitpro/devkitarm/bin/../lib/gcc/arm-none-eabi/6.3.0/../../../../arm-none-eabi/lib/thumb\libg.a(lib_a-mprec.o)
                0x0202a880                __mprec_bigtens
 .rodata.__mprec_tens
                0x0202a8a8       0xc8 c:/code/devkitpro/devkitarm/bin/../lib/gcc/arm-none-eabi/6.3.0/../../../../arm-none-eabi/lib/thumb\libg.a(lib_a-mprec.o)
                0x0202a8a8                __mprec_tens
 .rodata.p05.6068
                0x0202a970        0xc c:/code/devkitpro/devkitarm/bin/../lib/gcc/arm-none-eabi/6.3.0/../../../../arm-none-eabi/lib/thumb\libg.a(lib_a-mprec.o)
 .rodata.__action_table
                0x0202a97c       0x6c c:/code/devkitpro/devkitarm/bin/../lib/gcc/arm-none-eabi/6.3.0/../../../../arm-none-eabi/lib/thumb\libg.a(lib_a-svfiprintf.o)
                0x0202a97c                __action_table
 .rodata.__chclass
                0x0202a9e8      0x100 c:/code/devkitpro/devkitarm/bin/../lib/gcc/arm-none-eabi/6.3.0/../../../../arm-none-eabi/lib/thumb\libg.a(lib_a-svfiprintf.o)
                0x0202a9e8                __chclass
 .rodata.__state_table
                0x0202aae8       0x6c c:/code/devkitpro/devkitarm/bin/../lib/gcc/arm-none-eabi/6.3.0/../../../../arm-none-eabi/lib/thumb\libg.a(lib_a-svfiprintf.o)
                0x0202aae8                __state_table
 .rodata.AddDevice.str1.4
                0x0202ab54        0x8 c:/code/devkitpro/devkitarm/bin/../lib/gcc/arm-none-eabi/6.3.0/../../../../arm-none-eabi/lib/thumb\libsysbase.a(iosupport.o)
 .rodata.dotab_stdnull
                0x0202ab5c       0x68 c:/code/devkitpro/devkitarm/bin/../lib/gcc/arm-none-eabi/6.3.0/../../../../arm-none-eabi/lib/thumb\libsysbase.a(iosupport.o)
                0x0202ab5c                dotab_stdnull
 .rodata.DIRECTORY_PARENT
                0x0202abc4        0x3 c:/code/devkitpro/devkitarm/bin/../lib/gcc/arm-none-eabi/6.3.0/../../../../arm-none-eabi/lib/thumb\libsysbase.a(chdir.o)
                0x0202abc4                DIRECTORY_PARENT
 *(EXCLUDE_FILE(*.twl*) .gnu.linkonce.r*)
                0x0202abc8                . = ALIGN (0x4)
 *fill*         0x0202abc7        0x1 ff

.ARM.extab
 *(.ARM.extab* .gnu.linkonce.armextab.*)
                0x0202abc8                __exidx_start = .

ARM.exidx
 *(.ARM.exidx* .gnu.linkonce.armexidx.*)
                0x0202abc8                __exidx_end = .
                0x0202abc8                . = ALIGN (0x4)
                0x0202abc8                PROVIDE (__preinit_array_start, .)

.preinit_array
 *(.preinit_array)
                0x0202abc8                PROVIDE (__preinit_array_end, .)
                0x0202abc8                PROVIDE (__init_array_start, .)

.init_array     0x0202abc8        0x4
 *(SORT(.init_array.*))
 *(.init_array)
 .init_array    0x0202abc8        0x4 c:/code/devkitpro/devkitarm/bin/../lib/gcc/arm-none-eabi/6.3.0/thumb/crtbegin.o
                0x0202abcc                PROVIDE (__init_array_end, .)
                [!provide]                PROVIDE (__fini_array_start, .)

.fini_array     0x0202abcc        0x4
 *(.fini_array)
 .fini_array    0x0202abcc        0x4 c:/code/devkitpro/devkitarm/bin/../lib/gcc/arm-none-eabi/6.3.0/thumb/crtbegin.o
 *(SORT(.fini_array.*))
                [!provide]                PROVIDE (__fini_array_end, .)

.ctors          0x0202abd0        0x0
 *crtbegin.o(.ctors)
 *(EXCLUDE_FILE(*crtend.o) .ctors)
 *(SORT(.ctors.*))
 *(.ctors)
                0x0202abd0                . = ALIGN (0x4)

.dtors          0x0202abd0        0x0
 *crtbegin.o(.dtors)
 *(EXCLUDE_FILE(*crtend.o) .dtors)
 *(SORT(.dtors.*))
 *(.dtors)
                0x0202abd0                . = ALIGN (0x4)

.eh_frame       0x0202abd0        0x4
 *(.eh_frame)
 .eh_frame      0x0202abd0        0x0 c:/code/devkitpro/devkitarm/bin/../lib/gcc/arm-none-eabi/6.3.0/thumb/crtbegin.o
 .eh_frame      0x0202abd0        0x4 c:/code/devkitpro/devkitarm/bin/../lib/gcc/arm-none-eabi/6.3.0/thumb/crtend.o
                0x0202abd4                . = ALIGN (0x4)

.gcc_except_table
                0x0202abd4        0x0
 *(.gcc_except_table)
                0x0202abd4                . = ALIGN (0x4)

.jcr            0x0202abd4        0x4
 *(.jcr)
 .jcr           0x0202abd4        0x0 c:/code/devkitpro/devkitarm/bin/../lib/gcc/arm-none-eabi/6.3.0/thumb/crtbegin.o
 .jcr           0x0202abd4        0x4 c:/code/devkitpro/devkitarm/bin/../lib/gcc/arm-none-eabi/6.3.0/thumb/crtend.o

.got
 *(.got.plt)
 *(.got)
 *(.rel.got)

.ewram          0x0202abd8        0x0
                0x0202abd8                __ewram_start = ABSOLUTE (.)
 *(.ewram)
 *ewram.*(.text)
                0x0202abd8                . = ALIGN (0x4)

.data           0x0202abd8     0x2c70
                0x0202abd8                __data_start = ABSOLUTE (.)
 *(EXCLUDE_FILE(*.twl*) .data)
 .data          0x0202abd8       0x28 c:/code/devkitPro/libnds/lib\libnds9.a(mpu_setup.o)
 *(EXCLUDE_FILE(*.twl*) .data.*)
 .data.ndsFileFD
                0x0202ac00        0x4 c:/code/devkitPro/libnds/lib\libfilesystem.a(nitrofs.o)
 .data.nitroFSdevoptab
                0x0202ac04       0x68 c:/code/devkitPro/libnds/lib\libfilesystem.a(nitrofs.o)
                0x0202ac04                nitroFSdevoptab
 .data.syspaths
                0x0202ac6c        0x8 c:/code/devkitPro/libnds/lib\libfilesystem.a(nitrofs.o)
                0x0202ac6c                syspaths
 .data.currentConsole
                0x0202ac74        0x4 c:/code/devkitPro/libnds/lib\libnds9.a(console.o)
                0x0202ac74                currentConsole
 .data.defaultConsole
                0x0202ac78       0x5c c:/code/devkitPro/libnds/lib\libnds9.a(console.o)
                0x0202ac78                defaultConsole
 .data.firstConsoleInit.6480
                0x0202acd4        0x1 c:/code/devkitPro/libnds/lib\libnds9.a(console.o)
 *fill*         0x0202acd5        0x3 ff
 .data.bgControl
                0x0202acd8       0x20 c:/code/devkitPro/libnds/lib\libnds9.a(background.o)
                0x0202acd8                bgControl
 .data.bgScrollTable
                0x0202acf8       0x20 c:/code/devkitPro/libnds/lib\libnds9.a(background.o)
                0x0202acf8                bgScrollTable
 .data.bgTransform
                0x0202ad18       0x20 c:/code/devkitPro/libnds/lib\libnds9.a(background.o)
                0x0202ad18                bgTransform
 .data.glGlob   0x0202ad38        0x4 c:/code/devkitPro/libnds/lib\libnds9.a(videoGL.o)
 .data.oamMain  0x0202ad3c       0x18 c:/code/devkitPro/libnds/lib\libnds9.a(sprite.o)
                0x0202ad3c                oamMain
 .data.oamSub   0x0202ad54       0x18 c:/code/devkitPro/libnds/lib\libnds9.a(sprite.o)
                0x0202ad54                oamSub
 .data.fifo_buffer_free
                0x0202ad6c        0x4 c:/code/devkitPro/libnds/lib\libnds9.a(fifosystem.o)
                0x0202ad6c                fifo_buffer_free
 .data.fifo_freewords
                0x0202ad70        0x4 c:/code/devkitPro/libnds/lib\libnds9.a(fifosystem.o)
                0x0202ad70                fifo_freewords
 .data.fifo_receive_queue
                0x0202ad74        0x4 c:/code/devkitPro/libnds/lib\libnds9.a(fifosystem.o)
                0x0202ad74                fifo_receive_queue
 .data.fifo_send_queue
                0x0202ad78        0x4 c:/code/devkitPro/libnds/lib\libnds9.a(fifosystem.o)
                0x0202ad78                fifo_send_queue
 .data.__sfp_lock
                0x0202ad7c        0xc c:/code/devkitpro/devkitarm/bin/../lib/gcc/arm-none-eabi/6.3.0/../../../../arm-none-eabi/lib/thumb\libg.a(lib_a-findfp.o)
 .data.__sinit_lock
                0x0202ad88        0xc c:/code/devkitpro/devkitarm/bin/../lib/gcc/arm-none-eabi/6.3.0/../../../../arm-none-eabi/lib/thumb\libg.a(lib_a-findfp.o)
 .data._impure_ptr
                0x0202ad94        0x4 c:/code/devkitpro/devkitarm/bin/../lib/gcc/arm-none-eabi/6.3.0/../../../../arm-none-eabi/lib/thumb\libg.a(lib_a-impure.o)
                0x0202ad94                _impure_ptr
 .data.impure_data
                0x0202ad98      0x460 c:/code/devkitpro/devkitarm/bin/../lib/gcc/arm-none-eabi/6.3.0/../../../../arm-none-eabi/lib/thumb\libg.a(lib_a-impure.o)
 .data.__global_locale
                0x0202b1f8      0x16c c:/code/devkitpro/devkitarm/bin/../lib/gcc/arm-none-eabi/6.3.0/../../../../arm-none-eabi/lib/thumb\libg.a(lib_a-locale.o)
                0x0202b1f8                __global_locale
 .data.__malloc_av_
                0x0202b364      0x408 c:/code/devkitpro/devkitarm/bin/../lib/gcc/arm-none-eabi/6.3.0/../../../../arm-none-eabi/lib/thumb\libg.a(lib_a-mallocr.o)
                0x0202b364                __malloc_av_
 .data.__malloc_sbrk_base
                0x0202b76c        0x4 c:/code/devkitpro/devkitarm/bin/../lib/gcc/arm-none-eabi/6.3.0/../../../../arm-none-eabi/lib/thumb\libg.a(lib_a-mallocr.o)
                0x0202b76c                __malloc_sbrk_base
 .data.__malloc_trim_threshold
                0x0202b770        0x4 c:/code/devkitpro/devkitarm/bin/../lib/gcc/arm-none-eabi/6.3.0/../../../../arm-none-eabi/lib/thumb\libg.a(lib_a-mallocr.o)
                0x0202b770                __malloc_trim_threshold
 .data.__malloc_lock_object
                0x0202b774        0xc c:/code/devkitpro/devkitarm/bin/../lib/gcc/arm-none-eabi/6.3.0/../../../../arm-none-eabi/lib/thumb\libg.a(lib_a-mlock.o)
 .data.__tz_lock_object
                0x0202b780        0x4 c:/code/devkitpro/devkitarm/bin/../lib/gcc/arm-none-eabi/6.3.0/../../../../arm-none-eabi/lib/thumb\libg.a(lib_a-tzlock.o)
 .data._tzname  0x0202b784        0x8 c:/code/devkitpro/devkitarm/bin/../lib/gcc/arm-none-eabi/6.3.0/../../../../arm-none-eabi/lib/thumb\libg.a(lib_a-tzvars.o)
                0x0202b784                _tzname
 .data.tzinfo   0x0202b78c       0x40 c:/code/devkitpro/devkitarm/bin/../lib/gcc/arm-none-eabi/6.3.0/../../../../arm-none-eabi/lib/thumb\libg.a(lib_a-gettzinfo.o)
 .data.environ  0x0202b7cc        0x4 c:/code/devkitpro/devkitarm/bin/../lib/gcc/arm-none-eabi/6.3.0/../../../../arm-none-eabi/lib/thumb\libg.a(lib_a-environ.o)
                0x0202b7cc                environ
 .data.__env_lock_object
                0x0202b7d0        0xc c:/code/devkitpro/devkitarm/bin/../lib/gcc/arm-none-eabi/6.3.0/../../../../arm-none-eabi/lib/thumb\libg.a(lib_a-envlock.o)
 .data.defaultDevice
                0x0202b7dc        0x4 c:/code/devkitpro/devkitarm/bin/../lib/gcc/arm-none-eabi/6.3.0/../../../../arm-none-eabi/lib/thumb\libsysbase.a(iosupport.o)
 .data.devoptab_list
                0x0202b7e0       0x40 c:/code/devkitpro/devkitarm/bin/../lib/gcc/arm-none-eabi/6.3.0/../../../../arm-none-eabi/lib/thumb\libsysbase.a(iosupport.o)
                0x0202b7e0                devoptab_list
 .data._current_working_directory
                0x0202b820     0x1000 c:/code/devkitpro/devkitarm/bin/../lib/gcc/arm-none-eabi/6.3.0/../../../../arm-none-eabi/lib/thumb\libsysbase.a(chdir.o)
 .data.__hndl_lock
                0x0202c820        0x4 c:/code/devkitpro/devkitarm/bin/../lib/gcc/arm-none-eabi/6.3.0/../../../../arm-none-eabi/lib/thumb\libsysbase.a(handle_manager.o)
 .data.__stderr_handle
                0x0202c824        0xc c:/code/devkitpro/devkitarm/bin/../lib/gcc/arm-none-eabi/6.3.0/../../../../arm-none-eabi/lib/thumb\libsysbase.a(handle_manager.o)
 .data.__stdin_handle
                0x0202c830        0xc c:/code/devkitpro/devkitarm/bin/../lib/gcc/arm-none-eabi/6.3.0/../../../../arm-none-eabi/lib/thumb\libsysbase.a(handle_manager.o)
 .data.__stdout_handle
                0x0202c83c        0xc c:/code/devkitpro/devkitarm/bin/../lib/gcc/arm-none-eabi/6.3.0/../../../../arm-none-eabi/lib/thumb\libsysbase.a(handle_manager.o)
 .data.handles  0x0202c848     0x1000 c:/code/devkitpro/devkitarm/bin/../lib/gcc/arm-none-eabi/6.3.0/../../../../arm-none-eabi/lib/thumb\libsysbase.a(handle_manager.o)
 *(EXCLUDE_FILE(*.twl*) .gnu.linkonce.d*)
                0x0202d848                . = ALIGN (0x4)
                0x0202d848                __data_end = ABSOLUTE (.)
                0x0202d848                __bss_vma = .

.igot.plt       0x0202d848        0x0
 .igot.plt      0x0202d848        0x0 c:/code/devkitpro/devkitarm/bin/../lib/gcc/arm-none-eabi/6.3.0/../../../../arm-none-eabi/lib/thumb/ds_arm9_crt0.o

.tm_clone_table
                0x0202d848        0x0
 .tm_clone_table
                0x0202d848        0x0 c:/code/devkitpro/devkitarm/bin/../lib/gcc/arm-none-eabi/6.3.0/thumb/crtbegin.o
 .tm_clone_table
                0x0202d848        0x0 c:/code/devkitpro/devkitarm/bin/../lib/gcc/arm-none-eabi/6.3.0/thumb/crtend.o

.dtcm           0x0b000000        0x0 load address 0x0202d848
                0x0202d848                __dtcm_lma = LOADADDR (.dtcm)
                0x0b000000                __dtcm_start = ABSOLUTE (.)
 *(.dtcm)
 *(.dtcm.*)
                0x0b000000                . = ALIGN (0x4)
                0x0b000000                __dtcm_end = ABSOLUTE (.)

.itcm           0x01000100      0x194 load address 0x0202d848
                0x0202d848                __itcm_lma = LOADADDR (.itcm)
                0x01000100                __itcm_start = ABSOLUTE (.)
 *(.itcm)
 .itcm          0x01000100       0xc8 c:/code/devkitPro/libnds/lib\libnds9.a(interrupts.o)
                0x01000100                irqTable
 .itcm          0x010001c8       0xcc c:/code/devkitPro/libnds/lib\libnds9.a(interruptDispatcher.o)
                0x010001c8                IntrMain
 *.itcm*(.text .stub .text.*)
                0x01000294                . = ALIGN (0x4)
                0x01000294                __itcm_end = ABSOLUTE (.)

.vectors        0x01000000        0x0 load address 0x0202d9dc
                0x0202d9dc                __vectors_lma = LOADADDR (.vectors)
                0x01000000                __vectors_start = ABSOLUTE (.)
 *(.vectors)
 *.vectors*(.text .stub .text.*)
                0x01000000                . = ALIGN (0x4)
                0x01000000                __vectors_end = ABSOLUTE (.)

.sbss           0x0b000000        0x0
                0x0b000000                __sbss_start = ABSOLUTE (.)
                0x0b000000                __sbss_start__ = ABSOLUTE (.)
 *(.sbss)
                0x0b000000                . = ALIGN (0x4)
                0x0b000000                __sbss_end = ABSOLUTE (.)

.bss            0x0202d848     0xf1d8
                0x0202d848                __bss_start = ABSOLUTE (.)
                0x0202d848                __bss_start__ = ABSOLUTE (.)
 *(EXCLUDE_FILE(*.twl*) .dynbss)
 *(EXCLUDE_FILE(*.twl*) .gnu.linkonce.b*)
 *(EXCLUDE_FILE(*.twl*) .bss*)
 .bss.completed.6497
                0x0202d848        0x1 c:/code/devkitpro/devkitarm/bin/../lib/gcc/arm-none-eabi/6.3.0/thumb/crtbegin.o
 *fill*         0x0202d849        0x3 
 .bss.object.6502
                0x0202d84c       0x18 c:/code/devkitpro/devkitarm/bin/../lib/gcc/arm-none-eabi/6.3.0/thumb/crtbegin.o
 .bss.cardRead  0x0202d864        0x1 c:/code/devkitPro/libnds/lib\libfilesystem.a(nitrofs.o)
 *fill*         0x0202d865        0x1 
 .bss.chdirpathid
                0x0202d866        0x2 c:/code/devkitPro/libnds/lib\libfilesystem.a(nitrofs.o)
 .bss.fatOffset
                0x0202d868        0x4 c:/code/devkitPro/libnds/lib\libfilesystem.a(nitrofs.o)
 .bss.fntOffset
                0x0202d86c        0x4 c:/code/devkitPro/libnds/lib\libfilesystem.a(nitrofs.o)
 .bss.ndsFileLastpos
                0x0202d870        0x4 c:/code/devkitPro/libnds/lib\libfilesystem.a(nitrofs.o)
 .bss.temp.6277
                0x0202d874      0x200 c:/code/devkitPro/libnds/lib\libfilesystem.a(nitrofs.o)
 .bss.accessCounter
                0x0202da74        0x4 c:/code/devkitPro/libnds/lib\libfat.a(cache.o)
 .bss.__timeout
                0x0202da78        0x4 c:/code/devkitPro/libnds/lib\libnds9.a(fifosystem.o)
 .bss.processing
                0x0202da7c        0x4 c:/code/devkitPro/libnds/lib\libnds9.a(fifosystem.o)
                0x0202da7c                processing
 .bss.SDcallback
                0x0202da80        0x4 c:/code/devkitPro/libnds/lib\libnds9.a(system.o)
 .bss.__malloc_current_mallinfo
                0x0202da84       0x28 c:/code/devkitpro/devkitarm/bin/../lib/gcc/arm-none-eabi/6.3.0/../../../../arm-none-eabi/lib/thumb\libg.a(lib_a-mallocr.o)
                0x0202da84                __malloc_current_mallinfo
 .bss.__malloc_max_sbrked_mem
                0x0202daac        0x4 c:/code/devkitpro/devkitarm/bin/../lib/gcc/arm-none-eabi/6.3.0/../../../../arm-none-eabi/lib/thumb\libg.a(lib_a-mallocr.o)
                0x0202daac                __malloc_max_sbrked_mem
 .bss.__malloc_max_total_mem
                0x0202dab0        0x4 c:/code/devkitpro/devkitarm/bin/../lib/gcc/arm-none-eabi/6.3.0/../../../../arm-none-eabi/lib/thumb\libg.a(lib_a-mallocr.o)
                0x0202dab0                __malloc_max_total_mem
 .bss.__malloc_top_pad
                0x0202dab4        0x4 c:/code/devkitpro/devkitarm/bin/../lib/gcc/arm-none-eabi/6.3.0/../../../../arm-none-eabi/lib/thumb\libg.a(lib_a-mallocr.o)
                0x0202dab4                __malloc_top_pad
 .bss.__tzname_dst
                0x0202dab8        0xb c:/code/devkitpro/devkitarm/bin/../lib/gcc/arm-none-eabi/6.3.0/../../../../arm-none-eabi/lib/thumb\libg.a(lib_a-tzset_r.o)
 *fill*         0x0202dac3        0x1 
 .bss.__tzname_std
                0x0202dac4        0xb c:/code/devkitpro/devkitarm/bin/../lib/gcc/arm-none-eabi/6.3.0/../../../../arm-none-eabi/lib/thumb\libg.a(lib_a-tzset_r.o)
 *fill*         0x0202dacf        0x1 
 .bss.prev_tzenv
                0x0202dad0        0x4 c:/code/devkitpro/devkitarm/bin/../lib/gcc/arm-none-eabi/6.3.0/../../../../arm-none-eabi/lib/thumb\libg.a(lib_a-tzset_r.o)
 .bss._daylight
                0x0202dad4        0x4 c:/code/devkitpro/devkitarm/bin/../lib/gcc/arm-none-eabi/6.3.0/../../../../arm-none-eabi/lib/thumb\libg.a(lib_a-tzvars.o)
                0x0202dad4                _daylight
 .bss._timezone
                0x0202dad8        0x4 c:/code/devkitpro/devkitarm/bin/../lib/gcc/arm-none-eabi/6.3.0/../../../../arm-none-eabi/lib/thumb\libg.a(lib_a-tzvars.o)
                0x0202dad8                _timezone
 .bss.initial_env
                0x0202dadc        0x4 c:/code/devkitpro/devkitarm/bin/../lib/gcc/arm-none-eabi/6.3.0/../../../../arm-none-eabi/lib/thumb\libg.a(lib_a-environ.o)
 .bss.heap_start.5804
                0x0202dae0        0x4 c:/code/devkitpro/devkitarm/bin/../lib/gcc/arm-none-eabi/6.3.0/../../../../arm-none-eabi/lib/thumb\libsysbase.a(sbrk.o)
 .bss.fake_heap_end
                0x0202dae4        0x4 c:/code/devkitpro/devkitarm/bin/../lib/gcc/arm-none-eabi/6.3.0/../../../../arm-none-eabi/lib/thumb\libsysbase.a(malloc_vars.o)
                0x0202dae4                fake_heap_end
 .bss.fake_heap_start
                0x0202dae8        0x4 c:/code/devkitpro/devkitarm/bin/../lib/gcc/arm-none-eabi/6.3.0/../../../../arm-none-eabi/lib/thumb\libsysbase.a(malloc_vars.o)
                0x0202dae8                fake_heap_start
 .bss.temp_cwd  0x0202daec     0x1000 c:/code/devkitpro/devkitarm/bin/../lib/gcc/arm-none-eabi/6.3.0/../../../../arm-none-eabi/lib/thumb\libsysbase.a(chdir.o)
 .bss.__syscalls
                0x0202eaec       0x38 c:/code/devkitpro/devkitarm/bin/../lib/gcc/arm-none-eabi/6.3.0/../../../../arm-none-eabi/lib/thumb\libsysbase.a(syscall_support.o)
                0x0202eaec                __syscalls
 *(EXCLUDE_FILE(*.twl*) COMMON)
 COMMON         0x0202eb24       0x20 d:/Work/NDS/projects/NFlib/nflib/examples/3dsprites/animation/nflib/lib\libnflib.a(nf_basic.o)
                0x0202eb24                NF_ROOTFOLDER
 COMMON         0x0202eb44     0x5378 d:/Work/NDS/projects/NFlib/nflib/examples/3dsprites/animation/nflib/lib\libnflib.a(nf_sprite256.o)
                0x0202eb44                NF_SPR256GFX
                0x0202f744                NF_BUFFER_SPR256PAL
                0x0202f844                NF_BUFFER_SPR256GFX
                0x0202fc44                NF_SPRITEOAM
                0x02032044                NF_SPR256VRAM
                0x02033444                NF_SPRVRAM
                0x02033c7c                NF_SPRPALSLOT
                0x02033cbc                NF_SPR256PAL
 COMMON         0x02033ebc     0x605c d:/Work/NDS/projects/NFlib/nflib/examples/3dsprites/animation/nflib/lib\libnflib.a(nf_sprite3d.o)
                0x02033ebc                NF_TEXVRAM
                0x020346d4                NF_TEXPALSLOT
                0x02034714                NF_3DSPRITE
                0x02038714                NF_CREATED_3DSPRITE
                0x02038b18                NF_TEX256VRAM
 COMMON         0x02039f18     0x16c8 d:/Work/NDS/projects/NFlib/nflib/examples/3dsprites/animation/nflib/lib\libnflib.a(nf_tiledbg.o)
                0x02039f18                NF_BUFFER_BGTILES
                0x0203a018                NF_TILEBLOCKS
                0x0203a028                NF_BUFFER_BGMAP
                0x0203a128                NF_BANKS_TILES
                0x0203a12c                NF_BANKS_MAPS
                0x0203a130                NF_EXBGPAL
                0x0203a730                NF_TILEDBG_LAYERS
                0x0203a7c0                NF_MAPBLOCKS
                0x0203a7e0                NF_BUFFER_BGPAL
                0x0203a8e0                NF_TILEDBG
 COMMON         0x0203b5e0       0x5c c:/code/devkitPro/libnds/lib\libnds9.a(console.o)
                0x0203b5e0                currentCopy
 COMMON         0x0203b63c      0x148 c:/code/devkitPro/libnds/lib\libnds9.a(background.o)
                0x0203b63c                bgState
                0x0203b77c                bgIsTextLut
 COMMON         0x0203b784       0x54 c:/code/devkitPro/libnds/lib\libnds9.a(videoGL.o)
                0x0203b784                glGlobalData
 COMMON         0x0203b7d8      0x800 c:/code/devkitPro/libnds/lib\libnds9.a(sprite.o)
                0x0203b7d8                OamMemorySub
                0x0203bbd8                OamMemory
 COMMON         0x0203bfd8        0x1 c:/code/devkitPro/libnds/lib\libnds9.a(initSystem.o)
                0x0203bfd8                __dsimode
 *fill*         0x0203bfd9        0x3 
 COMMON         0x0203bfdc        0x4 c:/code/devkitPro/libnds/lib\libnds9.a(timeSupport.o)
                0x0203bfdc                punixTime
 COMMON         0x0203bfe0      0xa40 c:/code/devkitPro/libnds/lib\libnds9.a(fifosystem.o)
                0x0203bfe0                fifo_datamsg_data
                0x0203c020                fifo_buffer
                0x0203c820                fifo_value32_func
                0x0203c860                fifo_address_func
                0x0203c8a0                fifo_value32_data
                0x0203c8e0                fifo_value32_queue
                0x0203c920                fifo_data_queue
                0x0203c960                fifo_address_data
                0x0203c9a0                fifo_datamsg_func
                0x0203c9e0                fifo_address_queue
                0x0203ca20                . = ALIGN (0x4)
                0x0203ca20                __bss_end__ = ABSOLUTE (.)
                0x0203ca20                __end__ = ABSOLUTE (.)

.twl            0x0203ca20      0x158 load address 0x02400000
                0x02400000                __arm9i_lma__ = LOADADDR (.twl)
                0x0203ca20                __arm9i_start__ = ABSOLUTE (.)
 *(.twl)
 *.twl*(.text .stub .text.* .gnu.linkonce.t.*)
 .text.sdio_Shutdown
                0x0203ca20        0x4 c:/code/devkitPro/libnds/lib\libnds9.a(sd.twl.o)
                0x0203ca20                sdio_Shutdown
 .text.sdio_Startup
                0x0203ca24       0x50 c:/code/devkitPro/libnds/lib\libnds9.a(sd.twl.o)
                0x0203ca24                sdio_Startup
 .text.sdio_ClearStatus
                0x0203ca74        0x4 c:/code/devkitPro/libnds/lib\libnds9.a(sd.twl.o)
                0x0203ca74                sdio_ClearStatus
 .text.sdio_IsInserted
                0x0203ca78       0x30 c:/code/devkitPro/libnds/lib\libnds9.a(sd.twl.o)
                0x0203ca78                sdio_IsInserted
 .text.sdio_ReadSectors
                0x0203caa8       0x50 c:/code/devkitPro/libnds/lib\libnds9.a(sd.twl.o)
                0x0203caa8                sdio_ReadSectors
 .text.sdio_WriteSectors
                0x0203caf8       0x50 c:/code/devkitPro/libnds/lib\libnds9.a(sd.twl.o)
                0x0203caf8                sdio_WriteSectors
 .text.sdio_WriteSectors.__stub
                0x0203cb48       0x10 linker stubs
 *.twl*(.rodata)
 *.twl*(.roda)
 *.twl*(.rodata.*)
 .rodata.__io_dsisd
                0x0203cb58       0x20 c:/code/devkitPro/libnds/lib\libnds9.a(sd.twl.o)
                0x0203cb58                __io_dsisd
 *.twl*(.data)
 *.twl*(.data.*)
 *.twl*(.gnu.linkonce.d*)
                0x0203cb78                __arm9i_end__ = ABSOLUTE (.)

.rel.dyn        0x0203cb78        0x0 load address 0x02400158
 .rel.iplt      0x0203cb78        0x0 c:/code/devkitpro/devkitarm/bin/../lib/gcc/arm-none-eabi/6.3.0/../../../../arm-none-eabi/lib/thumb/ds_arm9_crt0.o

.twl_bss        0x0203cb78        0x0
                0x0203cb78                __twl_bss_start__ = ABSOLUTE (.)
 *(.twl_bss)
 *.twl*(.dynbss)
 *.twl*(.gnu.linkonce.b*)
 *.twl*(.bss*)
 *.twl*(COMMON)
                0x0203cb78                . = ALIGN (0x4)
                0x0203cb78                __twl_bss_end__ = ABSOLUTE (.)
                0x0203cb78                __twl_end__ = ABSOLUTE (.)

.stab
 *(.stab)

.stabstr
 *(.stabstr)

.stab.excl
 *(.stab.excl)

.stab.exclstr
 *(.stab.exclstr)

.stab.index
 *(.stab.index)

.stab.indexstr
 *(.stab.indexstr)

.comment        0x00000000       0x22
 *(.comment)
 .comment       0x00000000       0x22 c:/code/devkitpro/devkitarm/bin/../lib/gcc/arm-none-eabi/6.3.0/thumb/crtbegin.o
                                 0x23 (size before relaxing)
 .comment       0x00000022       0x23 main.o
 .comment       0x00000022       0x23 d:/Work/NDS/projects/NFlib/nflib/examples/3dsprites/animation/nflib/lib\libnflib.a(nf_2d.o)
 .comment       0x00000022       0x23 d:/Work/NDS/projects/NFlib/nflib/examples/3dsprites/animation/nflib/lib\libnflib.a(nf_3d.o)
 .comment       0x00000022       0x23 d:/Work/NDS/projects/NFlib/nflib/examples/3dsprites/animation/nflib/lib\libnflib.a(nf_basic.o)
 .comment       0x00000022       0x23 d:/Work/NDS/projects/NFlib/nflib/examples/3dsprites/animation/nflib/lib\libnflib.a(nf_sprite256.o)
 .comment       0x00000022       0x23 d:/Work/NDS/projects/NFlib/nflib/examples/3dsprites/animation/nflib/lib\libnflib.a(nf_sprite3d.o)
 .comment       0x00000022       0x23 d:/Work/NDS/projects/NFlib/nflib/examples/3dsprites/animation/nflib/lib\libnflib.a(nf_tiledbg.o)
 .comment       0x00000022       0x23 c:/code/devkitPro/libnds/lib\libfilesystem.a(nitrofs.o)
 .comment       0x00000022       0x23 c:/code/devkitPro/libnds/lib\libfat.a(libfat.o)
 .comment       0x00000022       0x23 c:/code/devkitPro/libnds/lib\libfat.a(partition.o)
 .comment       0x00000022       0x23 c:/code/devkitPro/libnds/lib\libfat.a(lock.o)
 .comment       0x00000022       0x23 c:/code/devkitPro/libnds/lib\libfat.a(fatdir.o)
 .comment       0x00000022       0x23 c:/code/devkitPro/libnds/lib\libfat.a(cache.o)
 .comment       0x00000022       0x23 c:/code/devkitPro/libnds/lib\libfat.a(fatfile.o)
 .comment       0x00000022       0x23 c:/code/devkitPro/libnds/lib\libfat.a(disc.o)
 .comment       0x00000022       0x23 c:/code/devkitPro/libnds/lib\libfat.a(file_allocation_table.o)
 .comment       0x00000022       0x23 c:/code/devkitPro/libnds/lib\libfat.a(filetime.o)
 .comment       0x00000022       0x23 c:/code/devkitPro/libnds/lib\libfat.a(directory.o)
 .comment       0x00000022       0x23 c:/code/devkitPro/libnds/lib\libnds9.a(console.o)
 .comment       0x00000022       0x23 c:/code/devkitPro/libnds/lib\libnds9.a(video.o)
 .comment       0x00000022       0x23 c:/code/devkitPro/libnds/lib\libnds9.a(background.o)
 .comment       0x00000022       0x23 c:/code/devkitPro/libnds/lib\libnds9.a(trig.o)
 .comment       0x00000022       0x23 c:/code/devkitPro/libnds/lib\libnds9.a(videoGL.o)
 .comment       0x00000022       0x23 c:/code/devkitPro/libnds/lib\libnds9.a(sprite.o)
 .comment       0x00000022       0x23 c:/code/devkitPro/libnds/lib\libnds9.a(sd.twl.o)
 .comment       0x00000022       0x23 c:/code/devkitPro/libnds/lib\libnds9.a(dldi.o)
 .comment       0x00000022       0x23 c:/code/devkitPro/libnds/lib\libnds9.a(initSystem.o)
 .comment       0x00000022       0x23 c:/code/devkitPro/libnds/lib\libnds9.a(timeSupport.o)
 .comment       0x00000022       0x23 c:/code/devkitPro/libnds/lib\libnds9.a(securearea.o)
 .comment       0x00000022       0x23 c:/code/devkitPro/libnds/lib\libnds9.a(interrupts.o)
 .comment       0x00000022       0x23 c:/code/devkitPro/libnds/lib\libnds9.a(libnds_exit.arm.o)
 .comment       0x00000022       0x23 c:/code/devkitPro/libnds/lib\libnds9.a(card.o)
 .comment       0x00000022       0x23 c:/code/devkitPro/libnds/lib\libnds9.a(fifosystem.o)
 .comment       0x00000022       0x23 c:/code/devkitPro/libnds/lib\libnds9.a(dynamicArray.o)
 .comment       0x00000022       0x23 c:/code/devkitPro/libnds/lib\libnds9.a(sprite_alloc.o)
 .comment       0x00000022       0x23 c:/code/devkitPro/libnds/lib\libnds9.a(system.o)
 .comment       0x00000022       0x23 c:/code/devkitpro/devkitarm/bin/../lib/gcc/arm-none-eabi/6.3.0/thumb\libgcc.a(_muldi3.o)
 .comment       0x00000022       0x23 c:/code/devkitpro/devkitarm/bin/../lib/gcc/arm-none-eabi/6.3.0/thumb\libgcc.a(_udivmoddi4.o)
 .comment       0x00000022       0x23 c:/code/devkitpro/devkitarm/bin/../lib/gcc/arm-none-eabi/6.3.0/../../../../arm-none-eabi/lib/thumb\libg.a(lib_a-calloc.o)
 .comment       0x00000022       0x23 c:/code/devkitpro/devkitarm/bin/../lib/gcc/arm-none-eabi/6.3.0/../../../../arm-none-eabi/lib/thumb\libg.a(lib_a-callocr.o)
 .comment       0x00000022       0x23 c:/code/devkitpro/devkitarm/bin/../lib/gcc/arm-none-eabi/6.3.0/../../../../arm-none-eabi/lib/thumb\libg.a(lib_a-fclose.o)
 .comment       0x00000022       0x23 c:/code/devkitpro/devkitarm/bin/../lib/gcc/arm-none-eabi/6.3.0/../../../../arm-none-eabi/lib/thumb\libg.a(lib_a-fflush.o)
 .comment       0x00000022       0x23 c:/code/devkitpro/devkitarm/bin/../lib/gcc/arm-none-eabi/6.3.0/../../../../arm-none-eabi/lib/thumb\libg.a(lib_a-findfp.o)
 .comment       0x00000022       0x23 c:/code/devkitpro/devkitarm/bin/../lib/gcc/arm-none-eabi/6.3.0/../../../../arm-none-eabi/lib/thumb\libg.a(lib_a-fopen.o)
 .comment       0x00000022       0x23 c:/code/devkitpro/devkitarm/bin/../lib/gcc/arm-none-eabi/6.3.0/../../../../arm-none-eabi/lib/thumb\libg.a(lib_a-fread.o)
 .comment       0x00000022       0x23 c:/code/devkitpro/devkitarm/bin/../lib/gcc/arm-none-eabi/6.3.0/../../../../arm-none-eabi/lib/thumb\libg.a(lib_a-freer.o)
 .comment       0x00000022       0x23 c:/code/devkitpro/devkitarm/bin/../lib/gcc/arm-none-eabi/6.3.0/../../../../arm-none-eabi/lib/thumb\libg.a(lib_a-fseek.o)
 .comment       0x00000022       0x23 c:/code/devkitpro/devkitarm/bin/../lib/gcc/arm-none-eabi/6.3.0/../../../../arm-none-eabi/lib/thumb\libg.a(lib_a-fseeko.o)
 .comment       0x00000022       0x23 c:/code/devkitpro/devkitarm/bin/../lib/gcc/arm-none-eabi/6.3.0/../../../../arm-none-eabi/lib/thumb\libg.a(lib_a-ftell.o)
 .comment       0x00000022       0x23 c:/code/devkitpro/devkitarm/bin/../lib/gcc/arm-none-eabi/6.3.0/../../../../arm-none-eabi/lib/thumb\libg.a(lib_a-ftello.o)
 .comment       0x00000022       0x23 c:/code/devkitpro/devkitarm/bin/../lib/gcc/arm-none-eabi/6.3.0/../../../../arm-none-eabi/lib/thumb\libg.a(lib_a-fwalk.o)
 .comment       0x00000022       0x23 c:/code/devkitpro/devkitarm/bin/../lib/gcc/arm-none-eabi/6.3.0/../../../../arm-none-eabi/lib/thumb\libg.a(lib_a-impure.o)
 .comment       0x00000022       0x23 c:/code/devkitpro/devkitarm/bin/../lib/gcc/arm-none-eabi/6.3.0/../../../../arm-none-eabi/lib/thumb\libg.a(lib_a-init.o)
 .comment       0x00000022       0x23 c:/code/devkitpro/devkitarm/bin/../lib/gcc/arm-none-eabi/6.3.0/../../../../arm-none-eabi/lib/thumb\libg.a(lib_a-iprintf.o)
 .comment       0x00000022       0x23 c:/code/devkitpro/devkitarm/bin/../lib/gcc/arm-none-eabi/6.3.0/../../../../arm-none-eabi/lib/thumb\libg.a(lib_a-lcltime_r.o)
 .comment       0x00000022       0x23 c:/code/devkitpro/devkitarm/bin/../lib/gcc/arm-none-eabi/6.3.0/../../../../arm-none-eabi/lib/thumb\libg.a(lib_a-locale.o)
 .comment       0x00000022       0x23 c:/code/devkitpro/devkitarm/bin/../lib/gcc/arm-none-eabi/6.3.0/../../../../arm-none-eabi/lib/thumb\libg.a(lib_a-makebuf.o)
 .comment       0x00000022       0x23 c:/code/devkitpro/devkitarm/bin/../lib/gcc/arm-none-eabi/6.3.0/../../../../arm-none-eabi/lib/thumb\libg.a(lib_a-malloc.o)
 .comment       0x00000022       0x23 c:/code/devkitpro/devkitarm/bin/../lib/gcc/arm-none-eabi/6.3.0/../../../../arm-none-eabi/lib/thumb\libg.a(lib_a-mallocr.o)
 .comment       0x00000022       0x23 c:/code/devkitpro/devkitarm/bin/../lib/gcc/arm-none-eabi/6.3.0/../../../../arm-none-eabi/lib/thumb\libg.a(lib_a-mbrtowc.o)
 .comment       0x00000022       0x23 c:/code/devkitpro/devkitarm/bin/../lib/gcc/arm-none-eabi/6.3.0/../../../../arm-none-eabi/lib/thumb\libg.a(lib_a-mbsrtowcs.o)
 .comment       0x00000022       0x23 c:/code/devkitpro/devkitarm/bin/../lib/gcc/arm-none-eabi/6.3.0/../../../../arm-none-eabi/lib/thumb\libg.a(lib_a-mbtowc_r.o)
 .comment       0x00000022       0x23 c:/code/devkitpro/devkitarm/bin/../lib/gcc/arm-none-eabi/6.3.0/../../../../arm-none-eabi/lib/thumb\libg.a(lib_a-memcmp.o)
 .comment       0x00000022       0x23 c:/code/devkitpro/devkitarm/bin/../lib/gcc/arm-none-eabi/6.3.0/../../../../arm-none-eabi/lib/thumb\libg.a(lib_a-memcpy-stub.o)
 .comment       0x00000022       0x23 c:/code/devkitpro/devkitarm/bin/../lib/gcc/arm-none-eabi/6.3.0/../../../../arm-none-eabi/lib/thumb\libg.a(lib_a-memmove.o)
 .comment       0x00000022       0x23 c:/code/devkitpro/devkitarm/bin/../lib/gcc/arm-none-eabi/6.3.0/../../../../arm-none-eabi/lib/thumb\libg.a(lib_a-memset.o)
 .comment       0x00000022       0x23 c:/code/devkitpro/devkitarm/bin/../lib/gcc/arm-none-eabi/6.3.0/../../../../arm-none-eabi/lib/thumb\libg.a(lib_a-mktime.o)
 .comment       0x00000022       0x23 c:/code/devkitpro/devkitarm/bin/../lib/gcc/arm-none-eabi/6.3.0/../../../../arm-none-eabi/lib/thumb\libg.a(lib_a-mlock.o)
 .comment       0x00000022       0x23 c:/code/devkitpro/devkitarm/bin/../lib/gcc/arm-none-eabi/6.3.0/../../../../arm-none-eabi/lib/thumb\libg.a(lib_a-month_lengths.o)
 .comment       0x00000022       0x23 c:/code/devkitpro/devkitarm/bin/../lib/gcc/arm-none-eabi/6.3.0/../../../../arm-none-eabi/lib/thumb\libg.a(lib_a-rand.o)
 .comment       0x00000022       0x23 c:/code/devkitpro/devkitarm/bin/../lib/gcc/arm-none-eabi/6.3.0/../../../../arm-none-eabi/lib/thumb\libg.a(lib_a-realloc.o)
 .comment       0x00000022       0x23 c:/code/devkitpro/devkitarm/bin/../lib/gcc/arm-none-eabi/6.3.0/../../../../arm-none-eabi/lib/thumb\libg.a(lib_a-reallocr.o)
 .comment       0x00000022       0x23 c:/code/devkitpro/devkitarm/bin/../lib/gcc/arm-none-eabi/6.3.0/../../../../arm-none-eabi/lib/thumb\libg.a(lib_a-refill.o)
 .comment       0x00000022       0x23 c:/code/devkitpro/devkitarm/bin/../lib/gcc/arm-none-eabi/6.3.0/../../../../arm-none-eabi/lib/thumb\libg.a(lib_a-rewind.o)
 .comment       0x00000022       0x23 c:/code/devkitpro/devkitarm/bin/../lib/gcc/arm-none-eabi/6.3.0/../../../../arm-none-eabi/lib/thumb\libg.a(lib_a-setvbuf.o)
 .comment       0x00000022       0x23 c:/code/devkitpro/devkitarm/bin/../lib/gcc/arm-none-eabi/6.3.0/../../../../arm-none-eabi/lib/thumb\libg.a(lib_a-siscanf.o)
 .comment       0x00000022       0x23 c:/code/devkitpro/devkitarm/bin/../lib/gcc/arm-none-eabi/6.3.0/../../../../arm-none-eabi/lib/thumb\libg.a(lib_a-sprintf.o)
 .comment       0x00000022       0x23 c:/code/devkitpro/devkitarm/bin/../lib/gcc/arm-none-eabi/6.3.0/../../../../arm-none-eabi/lib/thumb\libg.a(lib_a-stdio.o)
 .comment       0x00000022       0x23 c:/code/devkitpro/devkitarm/bin/../lib/gcc/arm-none-eabi/6.3.0/../../../../arm-none-eabi/lib/thumb\libg.a(lib_a-stpcpy.o)
 .comment       0x00000022       0x23 c:/code/devkitpro/devkitarm/bin/../lib/gcc/arm-none-eabi/6.3.0/../../../../arm-none-eabi/lib/thumb\libg.a(lib_a-strchr.o)
 .comment       0x00000022       0x23 c:/code/devkitpro/devkitarm/bin/../lib/gcc/arm-none-eabi/6.3.0/../../../../arm-none-eabi/lib/thumb\libg.a(lib_a-strcpy.o)
 .comment       0x00000022       0x23 c:/code/devkitpro/devkitarm/bin/../lib/gcc/arm-none-eabi/6.3.0/../../../../arm-none-eabi/lib/thumb\libg.a(lib_a-strdup.o)
 .comment       0x00000022       0x23 c:/code/devkitpro/devkitarm/bin/../lib/gcc/arm-none-eabi/6.3.0/../../../../arm-none-eabi/lib/thumb\libg.a(lib_a-strdup_r.o)
 .comment       0x00000022       0x23 c:/code/devkitpro/devkitarm/bin/../lib/gcc/arm-none-eabi/6.3.0/../../../../arm-none-eabi/lib/thumb\libg.a(lib_a-strlen-stub.o)
 .comment       0x00000022       0x23 c:/code/devkitpro/devkitarm/bin/../lib/gcc/arm-none-eabi/6.3.0/../../../../arm-none-eabi/lib/thumb\libg.a(lib_a-strncasecmp.o)
 .comment       0x00000022       0x23 c:/code/devkitpro/devkitarm/bin/../lib/gcc/arm-none-eabi/6.3.0/../../../../arm-none-eabi/lib/thumb\libg.a(lib_a-strncmp.o)
 .comment       0x00000022       0x23 c:/code/devkitpro/devkitarm/bin/../lib/gcc/arm-none-eabi/6.3.0/../../../../arm-none-eabi/lib/thumb\libg.a(lib_a-strncpy.o)
 .comment       0x00000022       0x23 c:/code/devkitpro/devkitarm/bin/../lib/gcc/arm-none-eabi/6.3.0/../../../../arm-none-eabi/lib/thumb\libg.a(lib_a-strnlen.o)
 .comment       0x00000022       0x23 c:/code/devkitpro/devkitarm/bin/../lib/gcc/arm-none-eabi/6.3.0/../../../../arm-none-eabi/lib/thumb\libg.a(lib_a-strpbrk.o)
 .comment       0x00000022       0x23 c:/code/devkitpro/devkitarm/bin/../lib/gcc/arm-none-eabi/6.3.0/../../../../arm-none-eabi/lib/thumb\libg.a(lib_a-strrchr.o)
 .comment       0x00000022       0x23 c:/code/devkitpro/devkitarm/bin/../lib/gcc/arm-none-eabi/6.3.0/../../../../arm-none-eabi/lib/thumb\libg.a(lib_a-strtol.o)
 .comment       0x00000022       0x23 c:/code/devkitpro/devkitarm/bin/../lib/gcc/arm-none-eabi/6.3.0/../../../../arm-none-eabi/lib/thumb\libg.a(lib_a-svfiscanf.o)
 .comment       0x00000022       0x23 c:/code/devkitpro/devkitarm/bin/../lib/gcc/arm-none-eabi/6.3.0/../../../../arm-none-eabi/lib/thumb\libg.a(lib_a-svfprintf.o)
 .comment       0x00000022       0x23 c:/code/devkitpro/devkitarm/bin/../lib/gcc/arm-none-eabi/6.3.0/../../../../arm-none-eabi/lib/thumb\libg.a(lib_a-syslseek.o)
 .comment       0x00000022       0x23 c:/code/devkitpro/devkitarm/bin/../lib/gcc/arm-none-eabi/6.3.0/../../../../arm-none-eabi/lib/thumb\libg.a(lib_a-sysopen.o)
 .comment       0x00000022       0x23 c:/code/devkitpro/devkitarm/bin/../lib/gcc/arm-none-eabi/6.3.0/../../../../arm-none-eabi/lib/thumb\libg.a(lib_a-sysread.o)
 .comment       0x00000022       0x23 c:/code/devkitpro/devkitarm/bin/../lib/gcc/arm-none-eabi/6.3.0/../../../../arm-none-eabi/lib/thumb\libg.a(lib_a-time.o)
 .comment       0x00000022       0x23 c:/code/devkitpro/devkitarm/bin/../lib/gcc/arm-none-eabi/6.3.0/../../../../arm-none-eabi/lib/thumb\libg.a(lib_a-towlower.o)
 .comment       0x00000022       0x23 c:/code/devkitpro/devkitarm/bin/../lib/gcc/arm-none-eabi/6.3.0/../../../../arm-none-eabi/lib/thumb\libg.a(lib_a-towupper.o)
 .comment       0x00000022       0x23 c:/code/devkitpro/devkitarm/bin/../lib/gcc/arm-none-eabi/6.3.0/../../../../arm-none-eabi/lib/thumb\libg.a(lib_a-tzcalc_limits.o)
 .comment       0x00000022       0x23 c:/code/devkitpro/devkitarm/bin/../lib/gcc/arm-none-eabi/6.3.0/../../../../arm-none-eabi/lib/thumb\libg.a(lib_a-tzlock.o)
 .comment       0x00000022       0x23 c:/code/devkitpro/devkitarm/bin/../lib/gcc/arm-none-eabi/6.3.0/../../../../arm-none-eabi/lib/thumb\libg.a(lib_a-tzset.o)
 .comment       0x00000022       0x23 c:/code/devkitpro/devkitarm/bin/../lib/gcc/arm-none-eabi/6.3.0/../../../../arm-none-eabi/lib/thumb\libg.a(lib_a-tzset_r.o)
 .comment       0x00000022       0x23 c:/code/devkitpro/devkitarm/bin/../lib/gcc/arm-none-eabi/6.3.0/../../../../arm-none-eabi/lib/thumb\libg.a(lib_a-tzvars.o)
 .comment       0x00000022       0x23 c:/code/devkitpro/devkitarm/bin/../lib/gcc/arm-none-eabi/6.3.0/../../../../arm-none-eabi/lib/thumb\libg.a(lib_a-ungetc.o)
 .comment       0x00000022       0x23 c:/code/devkitpro/devkitarm/bin/../lib/gcc/arm-none-eabi/6.3.0/../../../../arm-none-eabi/lib/thumb\libg.a(lib_a-vfiprintf.o)
 .comment       0x00000022       0x23 c:/code/devkitpro/devkitarm/bin/../lib/gcc/arm-none-eabi/6.3.0/../../../../arm-none-eabi/lib/thumb\libg.a(lib_a-wcrtomb.o)
 .comment       0x00000022       0x23 c:/code/devkitpro/devkitarm/bin/../lib/gcc/arm-none-eabi/6.3.0/../../../../arm-none-eabi/lib/thumb\libg.a(lib_a-wcsrtombs.o)
 .comment       0x00000022       0x23 c:/code/devkitpro/devkitarm/bin/../lib/gcc/arm-none-eabi/6.3.0/../../../../arm-none-eabi/lib/thumb\libg.a(lib_a-wctob.o)
 .comment       0x00000022       0x23 c:/code/devkitpro/devkitarm/bin/../lib/gcc/arm-none-eabi/6.3.0/../../../../arm-none-eabi/lib/thumb\libg.a(lib_a-wctomb_r.o)
 .comment       0x00000022       0x23 c:/code/devkitpro/devkitarm/bin/../lib/gcc/arm-none-eabi/6.3.0/../../../../arm-none-eabi/lib/thumb\libg.a(lib_a-wsetup.o)
 .comment       0x00000022       0x23 c:/code/devkitpro/devkitarm/bin/../lib/gcc/arm-none-eabi/6.3.0/../../../../arm-none-eabi/lib/thumb\libg.a(lib_a-ctype_.o)
 .comment       0x00000022       0x23 c:/code/devkitpro/devkitarm/bin/../lib/gcc/arm-none-eabi/6.3.0/../../../../arm-none-eabi/lib/thumb\libg.a(lib_a-div.o)
 .comment       0x00000022       0x23 c:/code/devkitpro/devkitarm/bin/../lib/gcc/arm-none-eabi/6.3.0/../../../../arm-none-eabi/lib/thumb\libg.a(lib_a-dtoa.o)
 .comment       0x00000022       0x23 c:/code/devkitpro/devkitarm/bin/../lib/gcc/arm-none-eabi/6.3.0/../../../../arm-none-eabi/lib/thumb\libg.a(lib_a-flags.o)
 .comment       0x00000022       0x23 c:/code/devkitpro/devkitarm/bin/../lib/gcc/arm-none-eabi/6.3.0/../../../../arm-none-eabi/lib/thumb\libg.a(lib_a-fvwrite.o)
 .comment       0x00000022       0x23 c:/code/devkitpro/devkitarm/bin/../lib/gcc/arm-none-eabi/6.3.0/../../../../arm-none-eabi/lib/thumb\libg.a(lib_a-getenv_r.o)
 .comment       0x00000022       0x23 c:/code/devkitpro/devkitarm/bin/../lib/gcc/arm-none-eabi/6.3.0/../../../../arm-none-eabi/lib/thumb\libg.a(lib_a-gettzinfo.o)
 .comment       0x00000022       0x23 c:/code/devkitpro/devkitarm/bin/../lib/gcc/arm-none-eabi/6.3.0/../../../../arm-none-eabi/lib/thumb\libg.a(lib_a-gmtime_r.o)
 .comment       0x00000022       0x23 c:/code/devkitpro/devkitarm/bin/../lib/gcc/arm-none-eabi/6.3.0/../../../../arm-none-eabi/lib/thumb\libg.a(lib_a-iswspace.o)
 .comment       0x00000022       0x23 c:/code/devkitpro/devkitarm/bin/../lib/gcc/arm-none-eabi/6.3.0/../../../../arm-none-eabi/lib/thumb\libg.a(lib_a-jp2uc.o)
 .comment       0x00000022       0x23 c:/code/devkitpro/devkitarm/bin/../lib/gcc/arm-none-eabi/6.3.0/../../../../arm-none-eabi/lib/thumb\libg.a(lib_a-localeconv.o)
 .comment       0x00000022       0x23 c:/code/devkitpro/devkitarm/bin/../lib/gcc/arm-none-eabi/6.3.0/../../../../arm-none-eabi/lib/thumb\libg.a(lib_a-mbsnrtowcs.o)
 .comment       0x00000022       0x23 c:/code/devkitpro/devkitarm/bin/../lib/gcc/arm-none-eabi/6.3.0/../../../../arm-none-eabi/lib/thumb\libg.a(lib_a-memchr-stub.o)
 .comment       0x00000022       0x23 c:/code/devkitpro/devkitarm/bin/../lib/gcc/arm-none-eabi/6.3.0/../../../../arm-none-eabi/lib/thumb\libg.a(lib_a-mprec.o)
 .comment       0x00000022       0x23 c:/code/devkitpro/devkitarm/bin/../lib/gcc/arm-none-eabi/6.3.0/../../../../arm-none-eabi/lib/thumb\libg.a(lib_a-sccl.o)
 .comment       0x00000022       0x23 c:/code/devkitpro/devkitarm/bin/../lib/gcc/arm-none-eabi/6.3.0/../../../../arm-none-eabi/lib/thumb\libg.a(lib_a-s_frexp.o)
 .comment       0x00000022       0x23 c:/code/devkitpro/devkitarm/bin/../lib/gcc/arm-none-eabi/6.3.0/../../../../arm-none-eabi/lib/thumb\libg.a(lib_a-strtoll.o)
 .comment       0x00000022       0x23 c:/code/devkitpro/devkitarm/bin/../lib/gcc/arm-none-eabi/6.3.0/../../../../arm-none-eabi/lib/thumb\libg.a(lib_a-strtoull.o)
 .comment       0x00000022       0x23 c:/code/devkitpro/devkitarm/bin/../lib/gcc/arm-none-eabi/6.3.0/../../../../arm-none-eabi/lib/thumb\libg.a(lib_a-strtoul.o)
 .comment       0x00000022       0x23 c:/code/devkitpro/devkitarm/bin/../lib/gcc/arm-none-eabi/6.3.0/../../../../arm-none-eabi/lib/thumb\libg.a(lib_a-svfiprintf.o)
 .comment       0x00000022       0x23 c:/code/devkitpro/devkitarm/bin/../lib/gcc/arm-none-eabi/6.3.0/../../../../arm-none-eabi/lib/thumb\libg.a(lib_a-wcsnrtombs.o)
 .comment       0x00000022       0x23 c:/code/devkitpro/devkitarm/bin/../lib/gcc/arm-none-eabi/6.3.0/../../../../arm-none-eabi/lib/thumb\libg.a(lib_a-environ.o)
 .comment       0x00000022       0x23 c:/code/devkitpro/devkitarm/bin/../lib/gcc/arm-none-eabi/6.3.0/../../../../arm-none-eabi/lib/thumb\libg.a(lib_a-envlock.o)
 .comment       0x00000022       0x23 c:/code/devkitpro/devkitarm/bin/../lib/gcc/arm-none-eabi/6.3.0/../../../../arm-none-eabi/lib/thumb\libsysbase.a(iosupport.o)
 .comment       0x00000022       0x23 c:/code/devkitpro/devkitarm/bin/../lib/gcc/arm-none-eabi/6.3.0/../../../../arm-none-eabi/lib/thumb\libsysbase.a(close.o)
 .comment       0x00000022       0x23 c:/code/devkitpro/devkitarm/bin/../lib/gcc/arm-none-eabi/6.3.0/../../../../arm-none-eabi/lib/thumb\libsysbase.a(fstat.o)
 .comment       0x00000022       0x23 c:/code/devkitpro/devkitarm/bin/../lib/gcc/arm-none-eabi/6.3.0/../../../../arm-none-eabi/lib/thumb\libsysbase.a(gettod.o)
 .comment       0x00000022       0x23 c:/code/devkitpro/devkitarm/bin/../lib/gcc/arm-none-eabi/6.3.0/../../../../arm-none-eabi/lib/thumb\libsysbase.a(isatty.o)
 .comment       0x00000022       0x23 c:/code/devkitpro/devkitarm/bin/../lib/gcc/arm-none-eabi/6.3.0/../../../../arm-none-eabi/lib/thumb\libsysbase.a(lseek.o)
 .comment       0x00000022       0x23 c:/code/devkitpro/devkitarm/bin/../lib/gcc/arm-none-eabi/6.3.0/../../../../arm-none-eabi/lib/thumb\libsysbase.a(open.o)
 .comment       0x00000022       0x23 c:/code/devkitpro/devkitarm/bin/../lib/gcc/arm-none-eabi/6.3.0/../../../../arm-none-eabi/lib/thumb\libsysbase.a(read.o)
 .comment       0x00000022       0x23 c:/code/devkitpro/devkitarm/bin/../lib/gcc/arm-none-eabi/6.3.0/../../../../arm-none-eabi/lib/thumb\libsysbase.a(sbrk.o)
 .comment       0x00000022       0x23 c:/code/devkitpro/devkitarm/bin/../lib/gcc/arm-none-eabi/6.3.0/../../../../arm-none-eabi/lib/thumb\libsysbase.a(write.o)
 .comment       0x00000022       0x23 c:/code/devkitpro/devkitarm/bin/../lib/gcc/arm-none-eabi/6.3.0/../../../../arm-none-eabi/lib/thumb\libsysbase.a(malloc_vars.o)
 .comment       0x00000022       0x23 c:/code/devkitpro/devkitarm/bin/../lib/gcc/arm-none-eabi/6.3.0/../../../../arm-none-eabi/lib/thumb\libsysbase.a(chdir.o)
 .comment       0x00000022       0x23 c:/code/devkitpro/devkitarm/bin/../lib/gcc/arm-none-eabi/6.3.0/../../../../arm-none-eabi/lib/thumb\libsysbase.a(build_argv.o)
 .comment       0x00000022       0x23 c:/code/devkitpro/devkitarm/bin/../lib/gcc/arm-none-eabi/6.3.0/../../../../arm-none-eabi/lib/thumb\libsysbase.a(flock.o)
 .comment       0x00000022       0x23 c:/code/devkitpro/devkitarm/bin/../lib/gcc/arm-none-eabi/6.3.0/../../../../arm-none-eabi/lib/thumb\libsysbase.a(syscall_support.o)
 .comment       0x00000022       0x23 c:/code/devkitpro/devkitarm/bin/../lib/gcc/arm-none-eabi/6.3.0/../../../../arm-none-eabi/lib/thumb\libsysbase.a(handle_manager.o)
 .comment       0x00000022       0x23 c:/code/devkitpro/devkitarm/bin/../lib/gcc/arm-none-eabi/6.3.0/../../../../arm-none-eabi/lib/thumb\libsysbase.a(getreent.o)
 .comment       0x00000022       0x23 c:/code/devkitpro/devkitarm/bin/../lib/gcc/arm-none-eabi/6.3.0/../../../../arm-none-eabi/lib/thumb\libg.a(lib_a-errno.o)
 .comment       0x00000022       0x23 c:/code/devkitpro/devkitarm/bin/../lib/gcc/arm-none-eabi/6.3.0/thumb/crtend.o

.ARM.attributes
                0x00000000       0x2d
 .ARM.attributes
                0x00000000       0x21 c:/code/devkitpro/devkitarm/bin/../lib/gcc/arm-none-eabi/6.3.0/../../../../arm-none-eabi/lib/thumb/ds_arm9_crt0.o
 .ARM.attributes
                0x00000021       0x16 c:/code/devkitpro/devkitarm/bin/../lib/gcc/arm-none-eabi/6.3.0/thumb/crti.o
 .ARM.attributes
                0x00000037       0x30 c:/code/devkitpro/devkitarm/bin/../lib/gcc/arm-none-eabi/6.3.0/thumb/crtbegin.o
 .ARM.attributes
                0x00000067       0x27 main.o
 .ARM.attributes
                0x0000008e       0x27 d:/Work/NDS/projects/NFlib/nflib/examples/3dsprites/animation/nflib/lib\libnflib.a(nf_2d.o)
 .ARM.attributes
                0x000000b5       0x27 d:/Work/NDS/projects/NFlib/nflib/examples/3dsprites/animation/nflib/lib\libnflib.a(nf_3d.o)
 .ARM.attributes
                0x000000dc       0x27 d:/Work/NDS/projects/NFlib/nflib/examples/3dsprites/animation/nflib/lib\libnflib.a(nf_basic.o)
 .ARM.attributes
                0x00000103       0x27 d:/Work/NDS/projects/NFlib/nflib/examples/3dsprites/animation/nflib/lib\libnflib.a(nf_sprite256.o)
 .ARM.attributes
                0x0000012a       0x27 d:/Work/NDS/projects/NFlib/nflib/examples/3dsprites/animation/nflib/lib\libnflib.a(nf_sprite3d.o)
 .ARM.attributes
                0x00000151       0x27 d:/Work/NDS/projects/NFlib/nflib/examples/3dsprites/animation/nflib/lib\libnflib.a(nf_tiledbg.o)
 .ARM.attributes
                0x00000178       0x27 c:/code/devkitPro/libnds/lib\libfilesystem.a(nitrofs.o)
 .ARM.attributes
                0x0000019f       0x27 c:/code/devkitPro/libnds/lib\libfat.a(libfat.o)
 .ARM.attributes
                0x000001c6       0x27 c:/code/devkitPro/libnds/lib\libfat.a(partition.o)
 .ARM.attributes
                0x000001ed       0x27 c:/code/devkitPro/libnds/lib\libfat.a(lock.o)
 .ARM.attributes
                0x00000214       0x27 c:/code/devkitPro/libnds/lib\libfat.a(fatdir.o)
 .ARM.attributes
                0x0000023b       0x27 c:/code/devkitPro/libnds/lib\libfat.a(cache.o)
 .ARM.attributes
                0x00000262       0x27 c:/code/devkitPro/libnds/lib\libfat.a(fatfile.o)
 .ARM.attributes
                0x00000289       0x27 c:/code/devkitPro/libnds/lib\libfat.a(disc.o)
 .ARM.attributes
                0x000002b0       0x27 c:/code/devkitPro/libnds/lib\libfat.a(file_allocation_table.o)
 .ARM.attributes
                0x000002d7       0x27 c:/code/devkitPro/libnds/lib\libfat.a(filetime.o)
 .ARM.attributes
                0x000002fe       0x27 c:/code/devkitPro/libnds/lib\libfat.a(directory.o)
 .ARM.attributes
                0x00000325       0x2b c:/code/devkitPro/libnds/lib\libnds9.a(console.o)
 .ARM.attributes
                0x00000350       0x2b c:/code/devkitPro/libnds/lib\libnds9.a(video.o)
 .ARM.attributes
                0x0000037b       0x2b c:/code/devkitPro/libnds/lib\libnds9.a(background.o)
 .ARM.attributes
                0x000003a6       0x2b c:/code/devkitPro/libnds/lib\libnds9.a(trig.o)
 .ARM.attributes
                0x000003d1       0x2b c:/code/devkitPro/libnds/lib\libnds9.a(videoGL.o)
 .ARM.attributes
                0x000003fc       0x2b c:/code/devkitPro/libnds/lib\libnds9.a(sprite.o)
 .ARM.attributes
                0x00000427       0x2b c:/code/devkitPro/libnds/lib\libnds9.a(sd.twl.o)
 .ARM.attributes
                0x00000452       0x2b c:/code/devkitPro/libnds/lib\libnds9.a(dldi.o)
 .ARM.attributes
                0x0000047d       0x2b c:/code/devkitPro/libnds/lib\libnds9.a(initSystem.o)
 .ARM.attributes
                0x000004a8       0x2b c:/code/devkitPro/libnds/lib\libnds9.a(timeSupport.o)
 .ARM.attributes
                0x000004d3       0x2b c:/code/devkitPro/libnds/lib\libnds9.a(securearea.o)
 .ARM.attributes
                0x000004fe       0x2b c:/code/devkitPro/libnds/lib\libnds9.a(interrupts.o)
 .ARM.attributes
                0x00000529       0x2b c:/code/devkitPro/libnds/lib\libnds9.a(libnds_exit.arm.o)
 .ARM.attributes
                0x00000554       0x2b c:/code/devkitPro/libnds/lib\libnds9.a(card.o)
 .ARM.attributes
                0x0000057f       0x2b c:/code/devkitPro/libnds/lib\libnds9.a(fifosystem.o)
 .ARM.attributes
                0x000005aa       0x1b c:/code/devkitPro/libnds/lib\libnds9.a(dcache.o)
 .ARM.attributes
                0x000005c5       0x1b c:/code/devkitPro/libnds/lib\libnds9.a(dldi_stub.o)
 .ARM.attributes
                0x000005e0       0x21 c:/code/devkitPro/libnds/lib\libnds9.a(mpu_setup.o)
 .ARM.attributes
                0x00000601       0x21 c:/code/devkitPro/libnds/lib\libnds9.a(IntrWait.o)
 .ARM.attributes
                0x00000622       0x21 c:/code/devkitPro/libnds/lib\libnds9.a(cpu_clock.o)
 .ARM.attributes
                0x00000643       0x1b c:/code/devkitPro/libnds/lib\libnds9.a(interruptDispatcher.o)
 .ARM.attributes
                0x0000065e       0x21 c:/code/devkitPro/libnds/lib\libnds9.a(swiSoftReset.o)
 .ARM.attributes
                0x0000067f       0x1b c:/code/devkitPro/libnds/lib\libnds9.a(biosCalls.o)
 .ARM.attributes
                0x0000069a       0x14 c:/code/devkitPro/libnds/lib\libnds9.a(default_font.bin.o)
 .ARM.attributes
                0x000006ae       0x2b c:/code/devkitPro/libnds/lib\libnds9.a(dynamicArray.o)
 .ARM.attributes
                0x000006d9       0x2b c:/code/devkitPro/libnds/lib\libnds9.a(sprite_alloc.o)
 .ARM.attributes
                0x00000704       0x2b c:/code/devkitPro/libnds/lib\libnds9.a(system.o)
 .ARM.attributes
                0x0000072f       0x18 c:/code/devkitpro/devkitarm/bin/../lib/gcc/arm-none-eabi/6.3.0/thumb\libgcc.a(_udivsi3.o)
 .ARM.attributes
                0x00000747       0x18 c:/code/devkitpro/devkitarm/bin/../lib/gcc/arm-none-eabi/6.3.0/thumb\libgcc.a(_divsi3.o)
 .ARM.attributes
                0x0000075f       0x16 c:/code/devkitpro/devkitarm/bin/../lib/gcc/arm-none-eabi/6.3.0/thumb\libgcc.a(_dvmd_tls.o)
 .ARM.attributes
                0x00000775       0x18 c:/code/devkitpro/devkitarm/bin/../lib/gcc/arm-none-eabi/6.3.0/thumb\libgcc.a(_aeabi_ldivmod.o)
 .ARM.attributes
                0x0000078d       0x30 c:/code/devkitpro/devkitarm/bin/../lib/gcc/arm-none-eabi/6.3.0/thumb\libgcc.a(_muldi3.o)
 .ARM.attributes
                0x000007bd       0x30 c:/code/devkitpro/devkitarm/bin/../lib/gcc/arm-none-eabi/6.3.0/thumb\libgcc.a(_udivmoddi4.o)
 .ARM.attributes
                0x000007ed       0x18 c:/code/devkitpro/devkitarm/bin/../lib/gcc/arm-none-eabi/6.3.0/thumb\libgcc.a(_clzdi2.o)
 .ARM.attributes
                0x00000805       0x18 c:/code/devkitpro/devkitarm/bin/../lib/gcc/arm-none-eabi/6.3.0/thumb\libgcc.a(_clzsi2.o)
 .ARM.attributes
                0x0000081d       0x30 c:/code/devkitpro/devkitarm/bin/../lib/gcc/arm-none-eabi/6.3.0/../../../../arm-none-eabi/lib/thumb\libg.a(lib_a-calloc.o)
 .ARM.attributes
                0x0000084d       0x30 c:/code/devkitpro/devkitarm/bin/../lib/gcc/arm-none-eabi/6.3.0/../../../../arm-none-eabi/lib/thumb\libg.a(lib_a-callocr.o)
 .ARM.attributes
                0x0000087d       0x30 c:/code/devkitpro/devkitarm/bin/../lib/gcc/arm-none-eabi/6.3.0/../../../../arm-none-eabi/lib/thumb\libg.a(lib_a-fclose.o)
 .ARM.attributes
                0x000008ad       0x30 c:/code/devkitpro/devkitarm/bin/../lib/gcc/arm-none-eabi/6.3.0/../../../../arm-none-eabi/lib/thumb\libg.a(lib_a-fflush.o)
 .ARM.attributes
                0x000008dd       0x30 c:/code/devkitpro/devkitarm/bin/../lib/gcc/arm-none-eabi/6.3.0/../../../../arm-none-eabi/lib/thumb\libg.a(lib_a-findfp.o)
 .ARM.attributes
                0x0000090d       0x30 c:/code/devkitpro/devkitarm/bin/../lib/gcc/arm-none-eabi/6.3.0/../../../../arm-none-eabi/lib/thumb\libg.a(lib_a-fopen.o)
 .ARM.attributes
                0x0000093d       0x30 c:/code/devkitpro/devkitarm/bin/../lib/gcc/arm-none-eabi/6.3.0/../../../../arm-none-eabi/lib/thumb\libg.a(lib_a-fread.o)
 .ARM.attributes
                0x0000096d       0x30 c:/code/devkitpro/devkitarm/bin/../lib/gcc/arm-none-eabi/6.3.0/../../../../arm-none-eabi/lib/thumb\libg.a(lib_a-freer.o)
 .ARM.attributes
                0x0000099d       0x30 c:/code/devkitpro/devkitarm/bin/../lib/gcc/arm-none-eabi/6.3.0/../../../../arm-none-eabi/lib/thumb\libg.a(lib_a-fseek.o)
 .ARM.attributes
                0x000009cd       0x30 c:/code/devkitpro/devkitarm/bin/../lib/gcc/arm-none-eabi/6.3.0/../../../../arm-none-eabi/lib/thumb\libg.a(lib_a-fseeko.o)
 .ARM.attributes
                0x000009fd       0x30 c:/code/devkitpro/devkitarm/bin/../lib/gcc/arm-none-eabi/6.3.0/../../../../arm-none-eabi/lib/thumb\libg.a(lib_a-ftell.o)
 .ARM.attributes
                0x00000a2d       0x30 c:/code/devkitpro/devkitarm/bin/../lib/gcc/arm-none-eabi/6.3.0/../../../../arm-none-eabi/lib/thumb\libg.a(lib_a-ftello.o)
 .ARM.attributes
                0x00000a5d       0x30 c:/code/devkitpro/devkitarm/bin/../lib/gcc/arm-none-eabi/6.3.0/../../../../arm-none-eabi/lib/thumb\libg.a(lib_a-fwalk.o)
 .ARM.attributes
                0x00000a8d       0x30 c:/code/devkitpro/devkitarm/bin/../lib/gcc/arm-none-eabi/6.3.0/../../../../arm-none-eabi/lib/thumb\libg.a(lib_a-impure.o)
 .ARM.attributes
                0x00000abd       0x30 c:/code/devkitpro/devkitarm/bin/../lib/gcc/arm-none-eabi/6.3.0/../../../../arm-none-eabi/lib/thumb\libg.a(lib_a-init.o)
 .ARM.attributes
                0x00000aed       0x30 c:/code/devkitpro/devkitarm/bin/../lib/gcc/arm-none-eabi/6.3.0/../../../../arm-none-eabi/lib/thumb\libg.a(lib_a-iprintf.o)
 .ARM.attributes
                0x00000b1d       0x30 c:/code/devkitpro/devkitarm/bin/../lib/gcc/arm-none-eabi/6.3.0/../../../../arm-none-eabi/lib/thumb\libg.a(lib_a-lcltime_r.o)
 .ARM.attributes
                0x00000b4d       0x30 c:/code/devkitpro/devkitarm/bin/../lib/gcc/arm-none-eabi/6.3.0/../../../../arm-none-eabi/lib/thumb\libg.a(lib_a-locale.o)
 .ARM.attributes
                0x00000b7d       0x30 c:/code/devkitpro/devkitarm/bin/../lib/gcc/arm-none-eabi/6.3.0/../../../../arm-none-eabi/lib/thumb\libg.a(lib_a-makebuf.o)
 .ARM.attributes
                0x00000bad       0x30 c:/code/devkitpro/devkitarm/bin/../lib/gcc/arm-none-eabi/6.3.0/../../../../arm-none-eabi/lib/thumb\libg.a(lib_a-malloc.o)
 .ARM.attributes
                0x00000bdd       0x30 c:/code/devkitpro/devkitarm/bin/../lib/gcc/arm-none-eabi/6.3.0/../../../../arm-none-eabi/lib/thumb\libg.a(lib_a-mallocr.o)
 .ARM.attributes
                0x00000c0d       0x30 c:/code/devkitpro/devkitarm/bin/../lib/gcc/arm-none-eabi/6.3.0/../../../../arm-none-eabi/lib/thumb\libg.a(lib_a-mbrtowc.o)
 .ARM.attributes
                0x00000c3d       0x30 c:/code/devkitpro/devkitarm/bin/../lib/gcc/arm-none-eabi/6.3.0/../../../../arm-none-eabi/lib/thumb\libg.a(lib_a-mbsrtowcs.o)
 .ARM.attributes
                0x00000c6d       0x30 c:/code/devkitpro/devkitarm/bin/../lib/gcc/arm-none-eabi/6.3.0/../../../../arm-none-eabi/lib/thumb\libg.a(lib_a-mbtowc_r.o)
 .ARM.attributes
                0x00000c9d       0x30 c:/code/devkitpro/devkitarm/bin/../lib/gcc/arm-none-eabi/6.3.0/../../../../arm-none-eabi/lib/thumb\libg.a(lib_a-memcmp.o)
 .ARM.attributes
                0x00000ccd       0x30 c:/code/devkitpro/devkitarm/bin/../lib/gcc/arm-none-eabi/6.3.0/../../../../arm-none-eabi/lib/thumb\libg.a(lib_a-memcpy-stub.o)
 .ARM.attributes
                0x00000cfd       0x30 c:/code/devkitpro/devkitarm/bin/../lib/gcc/arm-none-eabi/6.3.0/../../../../arm-none-eabi/lib/thumb\libg.a(lib_a-memmove.o)
 .ARM.attributes
                0x00000d2d       0x30 c:/code/devkitpro/devkitarm/bin/../lib/gcc/arm-none-eabi/6.3.0/../../../../arm-none-eabi/lib/thumb\libg.a(lib_a-memset.o)
 .ARM.attributes
                0x00000d5d       0x30 c:/code/devkitpro/devkitarm/bin/../lib/gcc/arm-none-eabi/6.3.0/../../../../arm-none-eabi/lib/thumb\libg.a(lib_a-mktime.o)
 .ARM.attributes
                0x00000d8d       0x30 c:/code/devkitpro/devkitarm/bin/../lib/gcc/arm-none-eabi/6.3.0/../../../../arm-none-eabi/lib/thumb\libg.a(lib_a-mlock.o)
 .ARM.attributes
                0x00000dbd       0x30 c:/code/devkitpro/devkitarm/bin/../lib/gcc/arm-none-eabi/6.3.0/../../../../arm-none-eabi/lib/thumb\libg.a(lib_a-month_lengths.o)
 .ARM.attributes
                0x00000ded       0x30 c:/code/devkitpro/devkitarm/bin/../lib/gcc/arm-none-eabi/6.3.0/../../../../arm-none-eabi/lib/thumb\libg.a(lib_a-rand.o)
 .ARM.attributes
                0x00000e1d       0x30 c:/code/devkitpro/devkitarm/bin/../lib/gcc/arm-none-eabi/6.3.0/../../../../arm-none-eabi/lib/thumb\libg.a(lib_a-realloc.o)
 .ARM.attributes
                0x00000e4d       0x30 c:/code/devkitpro/devkitarm/bin/../lib/gcc/arm-none-eabi/6.3.0/../../../../arm-none-eabi/lib/thumb\libg.a(lib_a-reallocr.o)
 .ARM.attributes
                0x00000e7d       0x30 c:/code/devkitpro/devkitarm/bin/../lib/gcc/arm-none-eabi/6.3.0/../../../../arm-none-eabi/lib/thumb\libg.a(lib_a-refill.o)
 .ARM.attributes
                0x00000ead       0x30 c:/code/devkitpro/devkitarm/bin/../lib/gcc/arm-none-eabi/6.3.0/../../../../arm-none-eabi/lib/thumb\libg.a(lib_a-rewind.o)
 .ARM.attributes
                0x00000edd       0x30 c:/code/devkitpro/devkitarm/bin/../lib/gcc/arm-none-eabi/6.3.0/../../../../arm-none-eabi/lib/thumb\libg.a(lib_a-setvbuf.o)
 .ARM.attributes
                0x00000f0d       0x30 c:/code/devkitpro/devkitarm/bin/../lib/gcc/arm-none-eabi/6.3.0/../../../../arm-none-eabi/lib/thumb\libg.a(lib_a-siscanf.o)
 .ARM.attributes
                0x00000f3d       0x30 c:/code/devkitpro/devkitarm/bin/../lib/gcc/arm-none-eabi/6.3.0/../../../../arm-none-eabi/lib/thumb\libg.a(lib_a-sprintf.o)
 .ARM.attributes
                0x00000f6d       0x30 c:/code/devkitpro/devkitarm/bin/../lib/gcc/arm-none-eabi/6.3.0/../../../../arm-none-eabi/lib/thumb\libg.a(lib_a-stdio.o)
 .ARM.attributes
                0x00000f9d       0x30 c:/code/devkitpro/devkitarm/bin/../lib/gcc/arm-none-eabi/6.3.0/../../../../arm-none-eabi/lib/thumb\libg.a(lib_a-stpcpy.o)
 .ARM.attributes
                0x00000fcd       0x30 c:/code/devkitpro/devkitarm/bin/../lib/gcc/arm-none-eabi/6.3.0/../../../../arm-none-eabi/lib/thumb\libg.a(lib_a-strchr.o)
 .ARM.attributes
                0x00000ffd       0x16 c:/code/devkitpro/devkitarm/bin/../lib/gcc/arm-none-eabi/6.3.0/../../../../arm-none-eabi/lib/thumb\libg.a(lib_a-strcmp.o)
 .ARM.attributes
                0x00001013       0x30 c:/code/devkitpro/devkitarm/bin/../lib/gcc/arm-none-eabi/6.3.0/../../../../arm-none-eabi/lib/thumb\libg.a(lib_a-strcpy.o)
 .ARM.attributes
                0x00001043       0x30 c:/code/devkitpro/devkitarm/bin/../lib/gcc/arm-none-eabi/6.3.0/../../../../arm-none-eabi/lib/thumb\libg.a(lib_a-strdup.o)
 .ARM.attributes
                0x00001073       0x30 c:/code/devkitpro/devkitarm/bin/../lib/gcc/arm-none-eabi/6.3.0/../../../../arm-none-eabi/lib/thumb\libg.a(lib_a-strdup_r.o)
 .ARM.attributes
                0x000010a3       0x30 c:/code/devkitpro/devkitarm/bin/../lib/gcc/arm-none-eabi/6.3.0/../../../../arm-none-eabi/lib/thumb\libg.a(lib_a-strlen-stub.o)
 .ARM.attributes
                0x000010d3       0x30 c:/code/devkitpro/devkitarm/bin/../lib/gcc/arm-none-eabi/6.3.0/../../../../arm-none-eabi/lib/thumb\libg.a(lib_a-strncasecmp.o)
 .ARM.attributes
                0x00001103       0x30 c:/code/devkitpro/devkitarm/bin/../lib/gcc/arm-none-eabi/6.3.0/../../../../arm-none-eabi/lib/thumb\libg.a(lib_a-strncmp.o)
 .ARM.attributes
                0x00001133       0x30 c:/code/devkitpro/devkitarm/bin/../lib/gcc/arm-none-eabi/6.3.0/../../../../arm-none-eabi/lib/thumb\libg.a(lib_a-strncpy.o)
 .ARM.attributes
                0x00001163       0x30 c:/code/devkitpro/devkitarm/bin/../lib/gcc/arm-none-eabi/6.3.0/../../../../arm-none-eabi/lib/thumb\libg.a(lib_a-strnlen.o)
 .ARM.attributes
                0x00001193       0x30 c:/code/devkitpro/devkitarm/bin/../lib/gcc/arm-none-eabi/6.3.0/../../../../arm-none-eabi/lib/thumb\libg.a(lib_a-strpbrk.o)
 .ARM.attributes
                0x000011c3       0x30 c:/code/devkitpro/devkitarm/bin/../lib/gcc/arm-none-eabi/6.3.0/../../../../arm-none-eabi/lib/thumb\libg.a(lib_a-strrchr.o)
 .ARM.attributes
                0x000011f3       0x30 c:/code/devkitpro/devkitarm/bin/../lib/gcc/arm-none-eabi/6.3.0/../../../../arm-none-eabi/lib/thumb\libg.a(lib_a-strtol.o)
 .ARM.attributes
                0x00001223       0x30 c:/code/devkitpro/devkitarm/bin/../lib/gcc/arm-none-eabi/6.3.0/../../../../arm-none-eabi/lib/thumb\libg.a(lib_a-svfiscanf.o)
 .ARM.attributes
                0x00001253       0x30 c:/code/devkitpro/devkitarm/bin/../lib/gcc/arm-none-eabi/6.3.0/../../../../arm-none-eabi/lib/thumb\libg.a(lib_a-svfprintf.o)
 .ARM.attributes
                0x00001283       0x30 c:/code/devkitpro/devkitarm/bin/../lib/gcc/arm-none-eabi/6.3.0/../../../../arm-none-eabi/lib/thumb\libg.a(lib_a-syslseek.o)
 .ARM.attributes
                0x000012b3       0x30 c:/code/devkitpro/devkitarm/bin/../lib/gcc/arm-none-eabi/6.3.0/../../../../arm-none-eabi/lib/thumb\libg.a(lib_a-sysopen.o)
 .ARM.attributes
                0x000012e3       0x30 c:/code/devkitpro/devkitarm/bin/../lib/gcc/arm-none-eabi/6.3.0/../../../../arm-none-eabi/lib/thumb\libg.a(lib_a-sysread.o)
 .ARM.attributes
                0x00001313       0x30 c:/code/devkitpro/devkitarm/bin/../lib/gcc/arm-none-eabi/6.3.0/../../../../arm-none-eabi/lib/thumb\libg.a(lib_a-time.o)
 .ARM.attributes
                0x00001343       0x30 c:/code/devkitpro/devkitarm/bin/../lib/gcc/arm-none-eabi/6.3.0/../../../../arm-none-eabi/lib/thumb\libg.a(lib_a-towlower.o)
 .ARM.attributes
                0x00001373       0x30 c:/code/devkitpro/devkitarm/bin/../lib/gcc/arm-none-eabi/6.3.0/../../../../arm-none-eabi/lib/thumb\libg.a(lib_a-towupper.o)
 .ARM.attributes
                0x000013a3       0x30 c:/code/devkitpro/devkitarm/bin/../lib/gcc/arm-none-eabi/6.3.0/../../../../arm-none-eabi/lib/thumb\libg.a(lib_a-tzcalc_limits.o)
 .ARM.attributes
                0x000013d3       0x30 c:/code/devkitpro/devkitarm/bin/../lib/gcc/arm-none-eabi/6.3.0/../../../../arm-none-eabi/lib/thumb\libg.a(lib_a-tzlock.o)
 .ARM.attributes
                0x00001403       0x30 c:/code/devkitpro/devkitarm/bin/../lib/gcc/arm-none-eabi/6.3.0/../../../../arm-none-eabi/lib/thumb\libg.a(lib_a-tzset.o)
 .ARM.attributes
                0x00001433       0x30 c:/code/devkitpro/devkitarm/bin/../lib/gcc/arm-none-eabi/6.3.0/../../../../arm-none-eabi/lib/thumb\libg.a(lib_a-tzset_r.o)
 .ARM.attributes
                0x00001463       0x30 c:/code/devkitpro/devkitarm/bin/../lib/gcc/arm-none-eabi/6.3.0/../../../../arm-none-eabi/lib/thumb\libg.a(lib_a-tzvars.o)
 .ARM.attributes
                0x00001493       0x30 c:/code/devkitpro/devkitarm/bin/../lib/gcc/arm-none-eabi/6.3.0/../../../../arm-none-eabi/lib/thumb\libg.a(lib_a-ungetc.o)
 .ARM.attributes
                0x000014c3       0x30 c:/code/devkitpro/devkitarm/bin/../lib/gcc/arm-none-eabi/6.3.0/../../../../arm-none-eabi/lib/thumb\libg.a(lib_a-vfiprintf.o)
 .ARM.attributes
                0x000014f3       0x30 c:/code/devkitpro/devkitarm/bin/../lib/gcc/arm-none-eabi/6.3.0/../../../../arm-none-eabi/lib/thumb\libg.a(lib_a-wcrtomb.o)
 .ARM.attributes
                0x00001523       0x30 c:/code/devkitpro/devkitarm/bin/../lib/gcc/arm-none-eabi/6.3.0/../../../../arm-none-eabi/lib/thumb\libg.a(lib_a-wcsrtombs.o)
 .ARM.attributes
                0x00001553       0x30 c:/code/devkitpro/devkitarm/bin/../lib/gcc/arm-none-eabi/6.3.0/../../../../arm-none-eabi/lib/thumb\libg.a(lib_a-wctob.o)
 .ARM.attributes
                0x00001583       0x30 c:/code/devkitpro/devkitarm/bin/../lib/gcc/arm-none-eabi/6.3.0/../../../../arm-none-eabi/lib/thumb\libg.a(lib_a-wctomb_r.o)
 .ARM.attributes
                0x000015b3       0x30 c:/code/devkitpro/devkitarm/bin/../lib/gcc/arm-none-eabi/6.3.0/../../../../arm-none-eabi/lib/thumb\libg.a(lib_a-wsetup.o)
 .ARM.attributes
                0x000015e3       0x30 c:/code/devkitpro/devkitarm/bin/../lib/gcc/arm-none-eabi/6.3.0/../../../../arm-none-eabi/lib/thumb\libg.a(lib_a-ctype_.o)
 .ARM.attributes
                0x00001613       0x30 c:/code/devkitpro/devkitarm/bin/../lib/gcc/arm-none-eabi/6.3.0/../../../../arm-none-eabi/lib/thumb\libg.a(lib_a-div.o)
 .ARM.attributes
                0x00001643       0x30 c:/code/devkitpro/devkitarm/bin/../lib/gcc/arm-none-eabi/6.3.0/../../../../arm-none-eabi/lib/thumb\libg.a(lib_a-dtoa.o)
 .ARM.attributes
                0x00001673       0x30 c:/code/devkitpro/devkitarm/bin/../lib/gcc/arm-none-eabi/6.3.0/../../../../arm-none-eabi/lib/thumb\libg.a(lib_a-flags.o)
 .ARM.attributes
                0x000016a3       0x30 c:/code/devkitpro/devkitarm/bin/../lib/gcc/arm-none-eabi/6.3.0/../../../../arm-none-eabi/lib/thumb\libg.a(lib_a-fvwrite.o)
 .ARM.attributes
                0x000016d3       0x30 c:/code/devkitpro/devkitarm/bin/../lib/gcc/arm-none-eabi/6.3.0/../../../../arm-none-eabi/lib/thumb\libg.a(lib_a-getenv_r.o)
 .ARM.attributes
                0x00001703       0x30 c:/code/devkitpro/devkitarm/bin/../lib/gcc/arm-none-eabi/6.3.0/../../../../arm-none-eabi/lib/thumb\libg.a(lib_a-gettzinfo.o)
 .ARM.attributes
                0x00001733       0x30 c:/code/devkitpro/devkitarm/bin/../lib/gcc/arm-none-eabi/6.3.0/../../../../arm-none-eabi/lib/thumb\libg.a(lib_a-gmtime_r.o)
 .ARM.attributes
                0x00001763       0x30 c:/code/devkitpro/devkitarm/bin/../lib/gcc/arm-none-eabi/6.3.0/../../../../arm-none-eabi/lib/thumb\libg.a(lib_a-iswspace.o)
 .ARM.attributes
                0x00001793       0x30 c:/code/devkitpro/devkitarm/bin/../lib/gcc/arm-none-eabi/6.3.0/../../../../arm-none-eabi/lib/thumb\libg.a(lib_a-jp2uc.o)
 .ARM.attributes
                0x000017c3       0x30 c:/code/devkitpro/devkitarm/bin/../lib/gcc/arm-none-eabi/6.3.0/../../../../arm-none-eabi/lib/thumb\libg.a(lib_a-localeconv.o)
 .ARM.attributes
                0x000017f3       0x30 c:/code/devkitpro/devkitarm/bin/../lib/gcc/arm-none-eabi/6.3.0/../../../../arm-none-eabi/lib/thumb\libg.a(lib_a-mbsnrtowcs.o)
 .ARM.attributes
                0x00001823       0x30 c:/code/devkitpro/devkitarm/bin/../lib/gcc/arm-none-eabi/6.3.0/../../../../arm-none-eabi/lib/thumb\libg.a(lib_a-memchr-stub.o)
 .ARM.attributes
                0x00001853       0x30 c:/code/devkitpro/devkitarm/bin/../lib/gcc/arm-none-eabi/6.3.0/../../../../arm-none-eabi/lib/thumb\libg.a(lib_a-mprec.o)
 .ARM.attributes
                0x00001883       0x30 c:/code/devkitpro/devkitarm/bin/../lib/gcc/arm-none-eabi/6.3.0/../../../../arm-none-eabi/lib/thumb\libg.a(lib_a-sccl.o)
 .ARM.attributes
                0x000018b3       0x30 c:/code/devkitpro/devkitarm/bin/../lib/gcc/arm-none-eabi/6.3.0/../../../../arm-none-eabi/lib/thumb\libg.a(lib_a-s_frexp.o)
 .ARM.attributes
                0x000018e3       0x30 c:/code/devkitpro/devkitarm/bin/../lib/gcc/arm-none-eabi/6.3.0/../../../../arm-none-eabi/lib/thumb\libg.a(lib_a-strtoll.o)
 .ARM.attributes
                0x00001913       0x30 c:/code/devkitpro/devkitarm/bin/../lib/gcc/arm-none-eabi/6.3.0/../../../../arm-none-eabi/lib/thumb\libg.a(lib_a-strtoull.o)
 .ARM.attributes
                0x00001943       0x30 c:/code/devkitpro/devkitarm/bin/../lib/gcc/arm-none-eabi/6.3.0/../../../../arm-none-eabi/lib/thumb\libg.a(lib_a-strtoul.o)
 .ARM.attributes
                0x00001973       0x30 c:/code/devkitpro/devkitarm/bin/../lib/gcc/arm-none-eabi/6.3.0/../../../../arm-none-eabi/lib/thumb\libg.a(lib_a-svfiprintf.o)
 .ARM.attributes
                0x000019a3       0x30 c:/code/devkitpro/devkitarm/bin/../lib/gcc/arm-none-eabi/6.3.0/../../../../arm-none-eabi/lib/thumb\libg.a(lib_a-wcsnrtombs.o)
 .ARM.attributes
                0x000019d3       0x30 c:/code/devkitpro/devkitarm/bin/../lib/gcc/arm-none-eabi/6.3.0/../../../../arm-none-eabi/lib/thumb\libg.a(lib_a-environ.o)
 .ARM.attributes
                0x00001a03       0x30 c:/code/devkitpro/devkitarm/bin/../lib/gcc/arm-none-eabi/6.3.0/../../../../arm-none-eabi/lib/thumb\libg.a(lib_a-envlock.o)
 .ARM.attributes
                0x00001a33       0x30 c:/code/devkitpro/devkitarm/bin/../lib/gcc/arm-none-eabi/6.3.0/../../../../arm-none-eabi/lib/thumb\libsysbase.a(iosupport.o)
 .ARM.attributes
                0x00001a63       0x30 c:/code/devkitpro/devkitarm/bin/../lib/gcc/arm-none-eabi/6.3.0/../../../../arm-none-eabi/lib/thumb\libsysbase.a(close.o)
 .ARM.attributes
                0x00001a93       0x30 c:/code/devkitpro/devkitarm/bin/../lib/gcc/arm-none-eabi/6.3.0/../../../../arm-none-eabi/lib/thumb\libsysbase.a(fstat.o)
 .ARM.attributes
                0x00001ac3       0x30 c:/code/devkitpro/devkitarm/bin/../lib/gcc/arm-none-eabi/6.3.0/../../../../arm-none-eabi/lib/thumb\libsysbase.a(gettod.o)
 .ARM.attributes
                0x00001af3       0x30 c:/code/devkitpro/devkitarm/bin/../lib/gcc/arm-none-eabi/6.3.0/../../../../arm-none-eabi/lib/thumb\libsysbase.a(isatty.o)
 .ARM.attributes
                0x00001b23       0x30 c:/code/devkitpro/devkitarm/bin/../lib/gcc/arm-none-eabi/6.3.0/../../../../arm-none-eabi/lib/thumb\libsysbase.a(lseek.o)
 .ARM.attributes
                0x00001b53       0x30 c:/code/devkitpro/devkitarm/bin/../lib/gcc/arm-none-eabi/6.3.0/../../../../arm-none-eabi/lib/thumb\libsysbase.a(open.o)
 .ARM.attributes
                0x00001b83       0x30 c:/code/devkitpro/devkitarm/bin/../lib/gcc/arm-none-eabi/6.3.0/../../../../arm-none-eabi/lib/thumb\libsysbase.a(read.o)
 .ARM.attributes
                0x00001bb3       0x30 c:/code/devkitpro/devkitarm/bin/../lib/gcc/arm-none-eabi/6.3.0/../../../../arm-none-eabi/lib/thumb\libsysbase.a(sbrk.o)
 .ARM.attributes
                0x00001be3       0x30 c:/code/devkitpro/devkitarm/bin/../lib/gcc/arm-none-eabi/6.3.0/../../../../arm-none-eabi/lib/thumb\libsysbase.a(write.o)
 .ARM.attributes
                0x00001c13       0x30 c:/code/devkitpro/devkitarm/bin/../lib/gcc/arm-none-eabi/6.3.0/../../../../arm-none-eabi/lib/thumb\libsysbase.a(malloc_vars.o)
 .ARM.attributes
                0x00001c43       0x30 c:/code/devkitpro/devkitarm/bin/../lib/gcc/arm-none-eabi/6.3.0/../../../../arm-none-eabi/lib/thumb\libsysbase.a(chdir.o)
 .ARM.attributes
                0x00001c73       0x30 c:/code/devkitpro/devkitarm/bin/../lib/gcc/arm-none-eabi/6.3.0/../../../../arm-none-eabi/lib/thumb\libsysbase.a(build_argv.o)
 .ARM.attributes
                0x00001ca3       0x30 c:/code/devkitpro/devkitarm/bin/../lib/gcc/arm-none-eabi/6.3.0/../../../../arm-none-eabi/lib/thumb\libsysbase.a(flock.o)
 .ARM.attributes
                0x00001cd3       0x30 c:/code/devkitpro/devkitarm/bin/../lib/gcc/arm-none-eabi/6.3.0/../../../../arm-none-eabi/lib/thumb\libsysbase.a(syscall_support.o)
 .ARM.attributes
                0x00001d03       0x30 c:/code/devkitpro/devkitarm/bin/../lib/gcc/arm-none-eabi/6.3.0/../../../../arm-none-eabi/lib/thumb\libsysbase.a(handle_manager.o)
 .ARM.attributes
                0x00001d33       0x30 c:/code/devkitpro/devkitarm/bin/../lib/gcc/arm-none-eabi/6.3.0/../../../../arm-none-eabi/lib/thumb\libsysbase.a(getreent.o)
 .ARM.attributes
                0x00001d63       0x18 c:/code/devkitpro/devkitarm/bin/../lib/gcc/arm-none-eabi/6.3.0/thumb\libgcc.a(_arm_addsubdf3.o)
 .ARM.attributes
                0x00001d7b       0x18 c:/code/devkitpro/devkitarm/bin/../lib/gcc/arm-none-eabi/6.3.0/thumb\libgcc.a(_arm_muldivdf3.o)
 .ARM.attributes
                0x00001d93       0x18 c:/code/devkitpro/devkitarm/bin/../lib/gcc/arm-none-eabi/6.3.0/thumb\libgcc.a(_arm_cmpdf2.o)
 .ARM.attributes
                0x00001dab       0x18 c:/code/devkitpro/devkitarm/bin/../lib/gcc/arm-none-eabi/6.3.0/thumb\libgcc.a(_arm_unorddf2.o)
 .ARM.attributes
                0x00001dc3       0x18 c:/code/devkitpro/devkitarm/bin/../lib/gcc/arm-none-eabi/6.3.0/thumb\libgcc.a(_arm_fixdfsi.o)
 .ARM.attributes
                0x00001ddb       0x18 c:/code/devkitpro/devkitarm/bin/../lib/gcc/arm-none-eabi/6.3.0/thumb\libgcc.a(_aeabi_uldivmod.o)
 .ARM.attributes
                0x00001df3       0x30 c:/code/devkitpro/devkitarm/bin/../lib/gcc/arm-none-eabi/6.3.0/../../../../arm-none-eabi/lib/thumb\libg.a(lib_a-errno.o)
 .ARM.attributes
                0x00001e23       0x30 c:/code/devkitpro/devkitarm/bin/../lib/gcc/arm-none-eabi/6.3.0/thumb/crtend.o
 .ARM.attributes
                0x00001e53       0x16 c:/code/devkitpro/devkitarm/bin/../lib/gcc/arm-none-eabi/6.3.0/thumb/crtn.o

.debug
 *(.debug)

.line
 *(.line)

.debug_srcinfo
 *(.debug_srcinfo)

.debug_sfnames
 *(.debug_sfnames)

.debug_aranges  0x00000000      0xd40
 *(.debug_aranges)
 .debug_aranges
                0x00000000       0x20 main.o
 .debug_aranges
                0x00000020       0x20 d:/Work/NDS/projects/NFlib/nflib/examples/3dsprites/animation/nflib/lib\libnflib.a(nf_2d.o)
 .debug_aranges
                0x00000040       0x20 d:/Work/NDS/projects/NFlib/nflib/examples/3dsprites/animation/nflib/lib\libnflib.a(nf_3d.o)
 .debug_aranges
                0x00000060       0x20 d:/Work/NDS/projects/NFlib/nflib/examples/3dsprites/animation/nflib/lib\libnflib.a(nf_basic.o)
 .debug_aranges
                0x00000080       0x20 d:/Work/NDS/projects/NFlib/nflib/examples/3dsprites/animation/nflib/lib\libnflib.a(nf_sprite256.o)
 .debug_aranges
                0x000000a0       0x20 d:/Work/NDS/projects/NFlib/nflib/examples/3dsprites/animation/nflib/lib\libnflib.a(nf_sprite3d.o)
 .debug_aranges
                0x000000c0       0x20 d:/Work/NDS/projects/NFlib/nflib/examples/3dsprites/animation/nflib/lib\libnflib.a(nf_tiledbg.o)
 .debug_aranges
                0x000000e0       0x80 c:/code/devkitPro/libnds/lib\libfilesystem.a(nitrofs.o)
 .debug_aranges
                0x00000160       0x48 c:/code/devkitPro/libnds/lib\libfat.a(libfat.o)
 .debug_aranges
                0x000001a8       0x80 c:/code/devkitPro/libnds/lib\libfat.a(partition.o)
 .debug_aranges
                0x00000228       0x20 c:/code/devkitPro/libnds/lib\libfat.a(lock.o)
 .debug_aranges
                0x00000248       0x70 c:/code/devkitPro/libnds/lib\libfat.a(fatdir.o)
 .debug_aranges
                0x000002b8       0x80 c:/code/devkitPro/libnds/lib\libfat.a(cache.o)
 .debug_aranges
                0x00000338       0x90 c:/code/devkitPro/libnds/lib\libfat.a(fatfile.o)
 .debug_aranges
                0x000003c8       0x20 c:/code/devkitPro/libnds/lib\libfat.a(disc.o)
 .debug_aranges
                0x000003e8       0x60 c:/code/devkitPro/libnds/lib\libfat.a(file_allocation_table.o)
 .debug_aranges
                0x00000448       0x30 c:/code/devkitPro/libnds/lib\libfat.a(filetime.o)
 .debug_aranges
                0x00000478       0xa0 c:/code/devkitPro/libnds/lib\libfat.a(directory.o)
 .debug_aranges
                0x00000518       0x88 c:/code/devkitPro/libnds/lib\libnds9.a(console.o)
 .debug_aranges
                0x000005a0       0x48 c:/code/devkitPro/libnds/lib\libnds9.a(video.o)
 .debug_aranges
                0x000005e8       0x48 c:/code/devkitPro/libnds/lib\libnds9.a(background.o)
 .debug_aranges
                0x00000630       0x60 c:/code/devkitPro/libnds/lib\libnds9.a(trig.o)
 .debug_aranges
                0x00000690      0x140 c:/code/devkitPro/libnds/lib\libnds9.a(videoGL.o)
 .debug_aranges
                0x000007d0       0x60 c:/code/devkitPro/libnds/lib\libnds9.a(sprite.o)
 .debug_aranges
                0x00000830       0x40 c:/code/devkitPro/libnds/lib\libnds9.a(sd.twl.o)
 .debug_aranges
                0x00000870       0x40 c:/code/devkitPro/libnds/lib\libnds9.a(dldi.o)
 .debug_aranges
                0x000008b0       0x20 c:/code/devkitPro/libnds/lib\libnds9.a(initSystem.o)
 .debug_aranges
                0x000008d0       0x20 c:/code/devkitPro/libnds/lib\libnds9.a(timeSupport.o)
 .debug_aranges
                0x000008f0       0x18 c:/code/devkitPro/libnds/lib\libnds9.a(securearea.o)
 .debug_aranges
                0x00000908       0x50 c:/code/devkitPro/libnds/lib\libnds9.a(interrupts.o)
 .debug_aranges
                0x00000958       0x28 c:/code/devkitPro/libnds/lib\libnds9.a(libnds_exit.arm.o)
 .debug_aranges
                0x00000980       0x58 c:/code/devkitPro/libnds/lib\libnds9.a(card.o)
 .debug_aranges
                0x000009d8       0xc0 c:/code/devkitPro/libnds/lib\libnds9.a(fifosystem.o)
 .debug_aranges
                0x00000a98       0x38 c:/code/devkitPro/libnds/lib\libnds9.a(dcache.o)
 .debug_aranges
                0x00000ad0       0x20 c:/code/devkitPro/libnds/lib\libnds9.a(dldi_stub.o)
 .debug_aranges
                0x00000af0       0x30 c:/code/devkitPro/libnds/lib\libnds9.a(mpu_setup.o)
 .debug_aranges
                0x00000b20       0x28 c:/code/devkitPro/libnds/lib\libnds9.a(IntrWait.o)
 .debug_aranges
                0x00000b48       0x20 c:/code/devkitPro/libnds/lib\libnds9.a(cpu_clock.o)
 .debug_aranges
                0x00000b68       0x20 c:/code/devkitPro/libnds/lib\libnds9.a(interruptDispatcher.o)
 .debug_aranges
                0x00000b88       0x20 c:/code/devkitPro/libnds/lib\libnds9.a(swiSoftReset.o)
 .debug_aranges
                0x00000ba8       0xc8 c:/code/devkitPro/libnds/lib\libnds9.a(biosCalls.o)
 .debug_aranges
                0x00000c70       0x38 c:/code/devkitPro/libnds/lib\libnds9.a(dynamicArray.o)
 .debug_aranges
                0x00000ca8       0x40 c:/code/devkitPro/libnds/lib\libnds9.a(sprite_alloc.o)
 .debug_aranges
                0x00000ce8       0x58 c:/code/devkitPro/libnds/lib\libnds9.a(system.o)

.debug_pubnames
 *(.debug_pubnames)

.debug_info     0x00000000    0x3bde4
 *(.debug_info)
 .debug_info    0x00000000     0x2618 main.o
 .debug_info    0x00002618     0x22cd d:/Work/NDS/projects/NFlib/nflib/examples/3dsprites/animation/nflib/lib\libnflib.a(nf_2d.o)
 .debug_info    0x000048e5     0x1bfa d:/Work/NDS/projects/NFlib/nflib/examples/3dsprites/animation/nflib/lib\libnflib.a(nf_3d.o)
 .debug_info    0x000064df     0x20c7 d:/Work/NDS/projects/NFlib/nflib/examples/3dsprites/animation/nflib/lib\libnflib.a(nf_basic.o)
 .debug_info    0x000085a6     0x2e82 d:/Work/NDS/projects/NFlib/nflib/examples/3dsprites/animation/nflib/lib\libnflib.a(nf_sprite256.o)
 .debug_info    0x0000b428     0x3381 d:/Work/NDS/projects/NFlib/nflib/examples/3dsprites/animation/nflib/lib\libnflib.a(nf_sprite3d.o)
 .debug_info    0x0000e7a9     0x3d7d d:/Work/NDS/projects/NFlib/nflib/examples/3dsprites/animation/nflib/lib\libnflib.a(nf_tiledbg.o)
 .debug_info    0x00012526     0x291e c:/code/devkitPro/libnds/lib\libfilesystem.a(nitrofs.o)
 .debug_info    0x00014e44     0x1fbb c:/code/devkitPro/libnds/lib\libfat.a(libfat.o)
 .debug_info    0x00016dff     0x2b14 c:/code/devkitPro/libnds/lib\libfat.a(partition.o)
 .debug_info    0x00019913      0x2ca c:/code/devkitPro/libnds/lib\libfat.a(lock.o)
 .debug_info    0x00019bdd     0x2b20 c:/code/devkitPro/libnds/lib\libfat.a(fatdir.o)
 .debug_info    0x0001c6fd     0x193d c:/code/devkitPro/libnds/lib\libfat.a(cache.o)
 .debug_info    0x0001e03a     0x317b c:/code/devkitPro/libnds/lib\libfat.a(fatfile.o)
 .debug_info    0x000211b5      0x449 c:/code/devkitPro/libnds/lib\libfat.a(disc.o)
 .debug_info    0x000215fe     0x16da c:/code/devkitPro/libnds/lib\libfat.a(file_allocation_table.o)
 .debug_info    0x00022cd8      0xcbf c:/code/devkitPro/libnds/lib\libfat.a(filetime.o)
 .debug_info    0x00023997     0x3307 c:/code/devkitPro/libnds/lib\libfat.a(directory.o)
 .debug_info    0x00026c9e     0x2532 c:/code/devkitPro/libnds/lib\libnds9.a(console.o)
 .debug_info    0x000291d0      0x740 c:/code/devkitPro/libnds/lib\libnds9.a(video.o)
 .debug_info    0x00029910     0x12ad c:/code/devkitPro/libnds/lib\libnds9.a(background.o)
 .debug_info    0x0002abbd      0xdc9 c:/code/devkitPro/libnds/lib\libnds9.a(trig.o)
 .debug_info    0x0002b986     0x3843 c:/code/devkitPro/libnds/lib\libnds9.a(videoGL.o)
 .debug_info    0x0002f1c9     0x1572 c:/code/devkitPro/libnds/lib\libnds9.a(sprite.o)
 .debug_info    0x0003073b      0xb01 c:/code/devkitPro/libnds/lib\libnds9.a(sd.twl.o)
 .debug_info    0x0003123c     0x1077 c:/code/devkitPro/libnds/lib\libnds9.a(dldi.o)
 .debug_info    0x000322b3     0x1c22 c:/code/devkitPro/libnds/lib\libnds9.a(initSystem.o)
 .debug_info    0x00033ed5      0xa12 c:/code/devkitPro/libnds/lib\libnds9.a(timeSupport.o)
 .debug_info    0x000348e7       0x54 c:/code/devkitPro/libnds/lib\libnds9.a(securearea.o)
 .debug_info    0x0003493b      0x669 c:/code/devkitPro/libnds/lib\libnds9.a(interrupts.o)
 .debug_info    0x00034fa4      0xc56 c:/code/devkitPro/libnds/lib\libnds9.a(libnds_exit.arm.o)
 .debug_info    0x00035bfa      0x5ae c:/code/devkitPro/libnds/lib\libnds9.a(card.o)
 .debug_info    0x000361a8     0x1f70 c:/code/devkitPro/libnds/lib\libnds9.a(fifosystem.o)
 .debug_info    0x00038118       0xb4 c:/code/devkitPro/libnds/lib\libnds9.a(dcache.o)
 .debug_info    0x000381cc       0xc0 c:/code/devkitPro/libnds/lib\libnds9.a(dldi_stub.o)
 .debug_info    0x0003828c       0xbe c:/code/devkitPro/libnds/lib\libnds9.a(mpu_setup.o)
 .debug_info    0x0003834a       0xbd c:/code/devkitPro/libnds/lib\libnds9.a(IntrWait.o)
 .debug_info    0x00038407       0xc2 c:/code/devkitPro/libnds/lib\libnds9.a(cpu_clock.o)
 .debug_info    0x000384c9       0xc7 c:/code/devkitPro/libnds/lib\libnds9.a(interruptDispatcher.o)
 .debug_info    0x00038590       0xc0 c:/code/devkitPro/libnds/lib\libnds9.a(swiSoftReset.o)
 .debug_info    0x00038650       0xb9 c:/code/devkitPro/libnds/lib\libnds9.a(biosCalls.o)
 .debug_info    0x00038709      0xad1 c:/code/devkitPro/libnds/lib\libnds9.a(dynamicArray.o)
 .debug_info    0x000391da     0x19af c:/code/devkitPro/libnds/lib\libnds9.a(sprite_alloc.o)
 .debug_info    0x0003ab89     0x125b c:/code/devkitPro/libnds/lib\libnds9.a(system.o)

.debug_abbrev   0x00000000     0x7b09
 *(.debug_abbrev)
 .debug_abbrev  0x00000000      0x31a main.o
 .debug_abbrev  0x0000031a      0x40a d:/Work/NDS/projects/NFlib/nflib/examples/3dsprites/animation/nflib/lib\libnflib.a(nf_2d.o)
 .debug_abbrev  0x00000724      0x413 d:/Work/NDS/projects/NFlib/nflib/examples/3dsprites/animation/nflib/lib\libnflib.a(nf_3d.o)
 .debug_abbrev  0x00000b37      0x396 d:/Work/NDS/projects/NFlib/nflib/examples/3dsprites/animation/nflib/lib\libnflib.a(nf_basic.o)
 .debug_abbrev  0x00000ecd      0x49b d:/Work/NDS/projects/NFlib/nflib/examples/3dsprites/animation/nflib/lib\libnflib.a(nf_sprite256.o)
 .debug_abbrev  0x00001368      0x4a8 d:/Work/NDS/projects/NFlib/nflib/examples/3dsprites/animation/nflib/lib\libnflib.a(nf_sprite3d.o)
 .debug_abbrev  0x00001810      0x452 d:/Work/NDS/projects/NFlib/nflib/examples/3dsprites/animation/nflib/lib\libnflib.a(nf_tiledbg.o)
 .debug_abbrev  0x00001c62      0x475 c:/code/devkitPro/libnds/lib\libfilesystem.a(nitrofs.o)
 .debug_abbrev  0x000020d7      0x3a8 c:/code/devkitPro/libnds/lib\libfat.a(libfat.o)
 .debug_abbrev  0x0000247f      0x4a1 c:/code/devkitPro/libnds/lib\libfat.a(partition.o)
 .debug_abbrev  0x00002920      0x101 c:/code/devkitPro/libnds/lib\libfat.a(lock.o)
 .debug_abbrev  0x00002a21      0x389 c:/code/devkitPro/libnds/lib\libfat.a(fatdir.o)
 .debug_abbrev  0x00002daa      0x44b c:/code/devkitPro/libnds/lib\libfat.a(cache.o)
 .debug_abbrev  0x000031f5      0x4b7 c:/code/devkitPro/libnds/lib\libfat.a(fatfile.o)
 .debug_abbrev  0x000036ac      0x132 c:/code/devkitPro/libnds/lib\libfat.a(disc.o)
 .debug_abbrev  0x000037de      0x3c1 c:/code/devkitPro/libnds/lib\libfat.a(file_allocation_table.o)
 .debug_abbrev  0x00003b9f      0x228 c:/code/devkitPro/libnds/lib\libfat.a(filetime.o)
 .debug_abbrev  0x00003dc7      0x527 c:/code/devkitPro/libnds/lib\libfat.a(directory.o)
 .debug_abbrev  0x000042ee      0x510 c:/code/devkitPro/libnds/lib\libnds9.a(console.o)
 .debug_abbrev  0x000047fe      0x1e4 c:/code/devkitPro/libnds/lib\libnds9.a(video.o)
 .debug_abbrev  0x000049e2      0x3aa c:/code/devkitPro/libnds/lib\libnds9.a(background.o)
 .debug_abbrev  0x00004d8c      0x314 c:/code/devkitPro/libnds/lib\libnds9.a(trig.o)
 .debug_abbrev  0x000050a0      0x55c c:/code/devkitPro/libnds/lib\libnds9.a(videoGL.o)
 .debug_abbrev  0x000055fc      0x3d3 c:/code/devkitPro/libnds/lib\libnds9.a(sprite.o)
 .debug_abbrev  0x000059cf      0x2b2 c:/code/devkitPro/libnds/lib\libnds9.a(sd.twl.o)
 .debug_abbrev  0x00005c81      0x354 c:/code/devkitPro/libnds/lib\libnds9.a(dldi.o)
 .debug_abbrev  0x00005fd5      0x356 c:/code/devkitPro/libnds/lib\libnds9.a(initSystem.o)
 .debug_abbrev  0x0000632b      0x1da c:/code/devkitPro/libnds/lib\libnds9.a(timeSupport.o)
 .debug_abbrev  0x00006505       0x43 c:/code/devkitPro/libnds/lib\libnds9.a(securearea.o)
 .debug_abbrev  0x00006548      0x288 c:/code/devkitPro/libnds/lib\libnds9.a(interrupts.o)
 .debug_abbrev  0x000067d0      0x287 c:/code/devkitPro/libnds/lib\libnds9.a(libnds_exit.arm.o)
 .debug_abbrev  0x00006a57      0x209 c:/code/devkitPro/libnds/lib\libnds9.a(card.o)
 .debug_abbrev  0x00006c60      0x517 c:/code/devkitPro/libnds/lib\libnds9.a(fifosystem.o)
 .debug_abbrev  0x00007177       0x12 c:/code/devkitPro/libnds/lib\libnds9.a(dcache.o)
 .debug_abbrev  0x00007189       0x14 c:/code/devkitPro/libnds/lib\libnds9.a(dldi_stub.o)
 .debug_abbrev  0x0000719d       0x12 c:/code/devkitPro/libnds/lib\libnds9.a(mpu_setup.o)
 .debug_abbrev  0x000071af       0x12 c:/code/devkitPro/libnds/lib\libnds9.a(IntrWait.o)
 .debug_abbrev  0x000071c1       0x14 c:/code/devkitPro/libnds/lib\libnds9.a(cpu_clock.o)
 .debug_abbrev  0x000071d5       0x14 c:/code/devkitPro/libnds/lib\libnds9.a(interruptDispatcher.o)
 .debug_abbrev  0x000071e9       0x14 c:/code/devkitPro/libnds/lib\libnds9.a(swiSoftReset.o)
 .debug_abbrev  0x000071fd       0x12 c:/code/devkitPro/libnds/lib\libnds9.a(biosCalls.o)
 .debug_abbrev  0x0000720f      0x246 c:/code/devkitPro/libnds/lib\libnds9.a(dynamicArray.o)
 .debug_abbrev  0x00007455      0x3a0 c:/code/devkitPro/libnds/lib\libnds9.a(sprite_alloc.o)
 .debug_abbrev  0x000077f5      0x314 c:/code/devkitPro/libnds/lib\libnds9.a(system.o)

.debug_line     0x00000000     0xbfd1
 *(.debug_line)
 .debug_line    0x00000000      0x45a main.o
 .debug_line    0x0000045a      0x47f d:/Work/NDS/projects/NFlib/nflib/examples/3dsprites/animation/nflib/lib\libnflib.a(nf_2d.o)
 .debug_line    0x000008d9      0x425 d:/Work/NDS/projects/NFlib/nflib/examples/3dsprites/animation/nflib/lib\libnflib.a(nf_3d.o)
 .debug_line    0x00000cfe      0x485 d:/Work/NDS/projects/NFlib/nflib/examples/3dsprites/animation/nflib/lib\libnflib.a(nf_basic.o)
 .debug_line    0x00001183      0x8f4 d:/Work/NDS/projects/NFlib/nflib/examples/3dsprites/animation/nflib/lib\libnflib.a(nf_sprite256.o)
 .debug_line    0x00001a77      0xadc d:/Work/NDS/projects/NFlib/nflib/examples/3dsprites/animation/nflib/lib\libnflib.a(nf_sprite3d.o)
 .debug_line    0x00002553      0xb2d d:/Work/NDS/projects/NFlib/nflib/examples/3dsprites/animation/nflib/lib\libnflib.a(nf_tiledbg.o)
 .debug_line    0x00003080      0x5f3 c:/code/devkitPro/libnds/lib\libfilesystem.a(nitrofs.o)
 .debug_line    0x00003673      0x45b c:/code/devkitPro/libnds/lib\libfat.a(libfat.o)
 .debug_line    0x00003ace      0x72b c:/code/devkitPro/libnds/lib\libfat.a(partition.o)
 .debug_line    0x000041f9      0x14e c:/code/devkitPro/libnds/lib\libfat.a(lock.o)
 .debug_line    0x00004347      0x6db c:/code/devkitPro/libnds/lib\libfat.a(fatdir.o)
 .debug_line    0x00004a22      0x538 c:/code/devkitPro/libnds/lib\libfat.a(cache.o)
 .debug_line    0x00004f5a      0xaf7 c:/code/devkitPro/libnds/lib\libfat.a(fatfile.o)
 .debug_line    0x00005a51      0x1d4 c:/code/devkitPro/libnds/lib\libfat.a(disc.o)
 .debug_line    0x00005c25      0x4ae c:/code/devkitPro/libnds/lib\libfat.a(file_allocation_table.o)
 .debug_line    0x000060d3      0x257 c:/code/devkitPro/libnds/lib\libfat.a(filetime.o)
 .debug_line    0x0000632a      0xa9e c:/code/devkitPro/libnds/lib\libfat.a(directory.o)
 .debug_line    0x00006dc8      0x771 c:/code/devkitPro/libnds/lib\libnds9.a(console.o)
 .debug_line    0x00007539      0x29d c:/code/devkitPro/libnds/lib\libnds9.a(video.o)
 .debug_line    0x000077d6      0x3fb c:/code/devkitPro/libnds/lib\libnds9.a(background.o)
 .debug_line    0x00007bd1      0x3ab c:/code/devkitPro/libnds/lib\libnds9.a(trig.o)
 .debug_line    0x00007f7c      0xdef c:/code/devkitPro/libnds/lib\libnds9.a(videoGL.o)
 .debug_line    0x00008d6b      0x446 c:/code/devkitPro/libnds/lib\libnds9.a(sprite.o)
 .debug_line    0x000091b1      0x2b1 c:/code/devkitPro/libnds/lib\libnds9.a(sd.twl.o)
 .debug_line    0x00009462      0x409 c:/code/devkitPro/libnds/lib\libnds9.a(dldi.o)
 .debug_line    0x0000986b      0x3b5 c:/code/devkitPro/libnds/lib\libnds9.a(initSystem.o)
 .debug_line    0x00009c20      0x1e3 c:/code/devkitPro/libnds/lib\libnds9.a(timeSupport.o)
 .debug_line    0x00009e03       0x7c c:/code/devkitPro/libnds/lib\libnds9.a(securearea.o)
 .debug_line    0x00009e7f      0x2e3 c:/code/devkitPro/libnds/lib\libnds9.a(interrupts.o)
 .debug_line    0x0000a162      0x26c c:/code/devkitPro/libnds/lib\libnds9.a(libnds_exit.arm.o)
 .debug_line    0x0000a3ce      0x2a4 c:/code/devkitPro/libnds/lib\libnds9.a(card.o)
 .debug_line    0x0000a672      0x869 c:/code/devkitPro/libnds/lib\libnds9.a(fifosystem.o)
 .debug_line    0x0000aedb       0xcd c:/code/devkitPro/libnds/lib\libnds9.a(dcache.o)
 .debug_line    0x0000afa8       0x8b c:/code/devkitPro/libnds/lib\libnds9.a(dldi_stub.o)
 .debug_line    0x0000b033      0x129 c:/code/devkitPro/libnds/lib\libnds9.a(mpu_setup.o)
 .debug_line    0x0000b15c       0xb1 c:/code/devkitPro/libnds/lib\libnds9.a(IntrWait.o)
 .debug_line    0x0000b20d       0x9d c:/code/devkitPro/libnds/lib\libnds9.a(cpu_clock.o)
 .debug_line    0x0000b2aa       0xc6 c:/code/devkitPro/libnds/lib\libnds9.a(interruptDispatcher.o)
 .debug_line    0x0000b370       0x96 c:/code/devkitPro/libnds/lib\libnds9.a(swiSoftReset.o)
 .debug_line    0x0000b406      0x1ec c:/code/devkitPro/libnds/lib\libnds9.a(biosCalls.o)
 .debug_line    0x0000b5f2      0x280 c:/code/devkitPro/libnds/lib\libnds9.a(dynamicArray.o)
 .debug_line    0x0000b872      0x3c8 c:/code/devkitPro/libnds/lib\libnds9.a(sprite_alloc.o)
 .debug_line    0x0000bc3a      0x397 c:/code/devkitPro/libnds/lib\libnds9.a(system.o)

.debug_frame    0x00000000     0x2b0c
 *(.debug_frame)
 .debug_frame   0x00000000       0x3c main.o
 .debug_frame   0x0000003c      0x180 d:/Work/NDS/projects/NFlib/nflib/examples/3dsprites/animation/nflib/lib\libnflib.a(nf_2d.o)
 .debug_frame   0x000001bc       0x48 d:/Work/NDS/projects/NFlib/nflib/examples/3dsprites/animation/nflib/lib\libnflib.a(nf_3d.o)
 .debug_frame   0x00000204       0x78 d:/Work/NDS/projects/NFlib/nflib/examples/3dsprites/animation/nflib/lib\libnflib.a(nf_basic.o)
 .debug_frame   0x0000027c      0x2c0 d:/Work/NDS/projects/NFlib/nflib/examples/3dsprites/animation/nflib/lib\libnflib.a(nf_sprite256.o)
 .debug_frame   0x0000053c      0x2ec d:/Work/NDS/projects/NFlib/nflib/examples/3dsprites/animation/nflib/lib\libnflib.a(nf_sprite3d.o)
 .debug_frame   0x00000828      0x3c0 d:/Work/NDS/projects/NFlib/nflib/examples/3dsprites/animation/nflib/lib\libnflib.a(nf_tiledbg.o)
 .debug_frame   0x00000be8      0x1c4 c:/code/devkitPro/libnds/lib\libfilesystem.a(nitrofs.o)
 .debug_frame   0x00000dac       0xd8 c:/code/devkitPro/libnds/lib\libfat.a(libfat.o)
 .debug_frame   0x00000e84      0x194 c:/code/devkitPro/libnds/lib\libfat.a(partition.o)
 .debug_frame   0x00001018       0x50 c:/code/devkitPro/libnds/lib\libfat.a(lock.o)
 .debug_frame   0x00001068      0x17c c:/code/devkitPro/libnds/lib\libfat.a(fatdir.o)
 .debug_frame   0x000011e4      0x1d4 c:/code/devkitPro/libnds/lib\libfat.a(cache.o)
 .debug_frame   0x000013b8      0x230 c:/code/devkitPro/libnds/lib\libfat.a(fatfile.o)
 .debug_frame   0x000015e8       0x20 c:/code/devkitPro/libnds/lib\libfat.a(disc.o)
 .debug_frame   0x00001608      0x138 c:/code/devkitPro/libnds/lib\libfat.a(file_allocation_table.o)
 .debug_frame   0x00001740       0x58 c:/code/devkitPro/libnds/lib\libfat.a(filetime.o)
 .debug_frame   0x00001798      0x278 c:/code/devkitPro/libnds/lib\libfat.a(directory.o)
 .debug_frame   0x00001a10      0x1a0 c:/code/devkitPro/libnds/lib\libnds9.a(console.o)
 .debug_frame   0x00001bb0       0xb8 c:/code/devkitPro/libnds/lib\libnds9.a(video.o)
 .debug_frame   0x00001c68       0xc0 c:/code/devkitPro/libnds/lib\libnds9.a(background.o)
 .debug_frame   0x00001d28       0xd0 c:/code/devkitPro/libnds/lib\libnds9.a(trig.o)
 .debug_frame   0x00001df8      0x44c c:/code/devkitPro/libnds/lib\libnds9.a(videoGL.o)
 .debug_frame   0x00002244       0xf0 c:/code/devkitPro/libnds/lib\libnds9.a(sprite.o)
 .debug_frame   0x00002334       0xa0 c:/code/devkitPro/libnds/lib\libnds9.a(sd.twl.o)
 .debug_frame   0x000023d4       0x8c c:/code/devkitPro/libnds/lib\libnds9.a(dldi.o)
 .debug_frame   0x00002460       0x28 c:/code/devkitPro/libnds/lib\libnds9.a(initSystem.o)
 .debug_frame   0x00002488       0x20 c:/code/devkitPro/libnds/lib\libnds9.a(timeSupport.o)
 .debug_frame   0x000024a8       0xa4 c:/code/devkitPro/libnds/lib\libnds9.a(interrupts.o)
 .debug_frame   0x0000254c       0x3c c:/code/devkitPro/libnds/lib\libnds9.a(libnds_exit.arm.o)
 .debug_frame   0x00002588       0xf8 c:/code/devkitPro/libnds/lib\libnds9.a(card.o)
 .debug_frame   0x00002680      0x2a0 c:/code/devkitPro/libnds/lib\libnds9.a(fifosystem.o)
 .debug_frame   0x00002920       0x70 c:/code/devkitPro/libnds/lib\libnds9.a(dynamicArray.o)
 .debug_frame   0x00002990       0xb4 c:/code/devkitPro/libnds/lib\libnds9.a(sprite_alloc.o)
 .debug_frame   0x00002a44       0xc8 c:/code/devkitPro/libnds/lib\libnds9.a(system.o)

.debug_str      0x00000000     0x7937
 *(.debug_str)
 .debug_str     0x00000000     0x1352 main.o
                               0x14d7 (size before relaxing)
 .debug_str     0x00001352      0x280 d:/Work/NDS/projects/NFlib/nflib/examples/3dsprites/animation/nflib/lib\libnflib.a(nf_2d.o)
                               0x1296 (size before relaxing)
 .debug_str     0x000015d2      0x381 d:/Work/NDS/projects/NFlib/nflib/examples/3dsprites/animation/nflib/lib\libnflib.a(nf_3d.o)
                               0x117c (size before relaxing)
 .debug_str     0x00001953      0x1da d:/Work/NDS/projects/NFlib/nflib/examples/3dsprites/animation/nflib/lib\libnflib.a(nf_basic.o)
                                0xf6e (size before relaxing)
 .debug_str     0x00001b2d      0x822 d:/Work/NDS/projects/NFlib/nflib/examples/3dsprites/animation/nflib/lib\libnflib.a(nf_sprite256.o)
                               0x189b (size before relaxing)
 .debug_str     0x0000234f      0x535 d:/Work/NDS/projects/NFlib/nflib/examples/3dsprites/animation/nflib/lib\libnflib.a(nf_sprite3d.o)
                               0x1ad1 (size before relaxing)
 .debug_str     0x00002884      0x635 d:/Work/NDS/projects/NFlib/nflib/examples/3dsprites/animation/nflib/lib\libnflib.a(nf_tiledbg.o)
                               0x18cb (size before relaxing)
 .debug_str     0x00002eb9      0x8c9 c:/code/devkitPro/libnds/lib\libfilesystem.a(nitrofs.o)
                               0x117e (size before relaxing)
 .debug_str     0x00003782      0x47d c:/code/devkitPro/libnds/lib\libfat.a(libfat.o)
                               0x10f6 (size before relaxing)
 .debug_str     0x00003bff      0x5d2 c:/code/devkitPro/libnds/lib\libfat.a(partition.o)
                               0x1517 (size before relaxing)
 .debug_str     0x000041d1       0x56 c:/code/devkitPro/libnds/lib\libfat.a(lock.o)
                                0x341 (size before relaxing)
 .debug_str     0x00004227      0x509 c:/code/devkitPro/libnds/lib\libfat.a(fatdir.o)
                               0x13a9 (size before relaxing)
 .debug_str     0x00004730      0x17b c:/code/devkitPro/libnds/lib\libfat.a(cache.o)
                                0xaa1 (size before relaxing)
 .debug_str     0x000048ab      0x296 c:/code/devkitPro/libnds/lib\libfat.a(fatfile.o)
                               0x1211 (size before relaxing)
 .debug_str     0x00004b41      0x156 c:/code/devkitPro/libnds/lib\libfat.a(disc.o)
                                0x449 (size before relaxing)
 .debug_str     0x00004c97       0xc9 c:/code/devkitPro/libnds/lib\libfat.a(file_allocation_table.o)
                                0xb7c (size before relaxing)
 .debug_str     0x00004d60       0x93 c:/code/devkitPro/libnds/lib\libfat.a(filetime.o)
                                0x872 (size before relaxing)
 .debug_str     0x00004df3      0x526 c:/code/devkitPro/libnds/lib\libfat.a(directory.o)
                               0x1427 (size before relaxing)
 .debug_str     0x00005319      0x6b3 c:/code/devkitPro/libnds/lib\libnds9.a(console.o)
                               0x13d8 (size before relaxing)
 .debug_str     0x000059cc      0x2ea c:/code/devkitPro/libnds/lib\libnds9.a(video.o)
                                0xc11 (size before relaxing)
 .debug_str     0x00005cb6       0xe4 c:/code/devkitPro/libnds/lib\libnds9.a(background.o)
                                0xb65 (size before relaxing)
 .debug_str     0x00005d9a       0xef c:/code/devkitPro/libnds/lib\libnds9.a(trig.o)
                                0x6c3 (size before relaxing)
 .debug_str     0x00005e89      0x664 c:/code/devkitPro/libnds/lib\libnds9.a(videoGL.o)
                               0x1b2e (size before relaxing)
 .debug_str     0x000064ed      0x148 c:/code/devkitPro/libnds/lib\libnds9.a(sprite.o)
                                0xd1d (size before relaxing)
 .debug_str     0x00006635      0x4f2 c:/code/devkitPro/libnds/lib\libnds9.a(sd.twl.o)
                                0x83f (size before relaxing)
 .debug_str     0x00006b27       0xe9 c:/code/devkitPro/libnds/lib\libnds9.a(dldi.o)
                                0x94a (size before relaxing)
 .debug_str     0x00006c10      0x192 c:/code/devkitPro/libnds/lib\libnds9.a(initSystem.o)
                               0x1225 (size before relaxing)
 .debug_str     0x00006da2       0x6b c:/code/devkitPro/libnds/lib\libnds9.a(timeSupport.o)
                                0x696 (size before relaxing)
 .debug_str     0x00006e0d       0x6c c:/code/devkitPro/libnds/lib\libnds9.a(securearea.o)
                                0x102 (size before relaxing)
 .debug_str     0x00006e79      0x173 c:/code/devkitPro/libnds/lib\libnds9.a(interrupts.o)
                                0x499 (size before relaxing)
 .debug_str     0x00006fec      0x117 c:/code/devkitPro/libnds/lib\libnds9.a(libnds_exit.arm.o)
                                0x868 (size before relaxing)
 .debug_str     0x00007103       0xd5 c:/code/devkitPro/libnds/lib\libnds9.a(card.o)
                                0x290 (size before relaxing)
 .debug_str     0x000071d8      0x463 c:/code/devkitPro/libnds/lib\libnds9.a(fifosystem.o)
                                0xd5e (size before relaxing)
 .debug_str     0x0000763b       0x6b c:/code/devkitPro/libnds/lib\libnds9.a(dynamicArray.o)
                                0x67b (size before relaxing)
 .debug_str     0x000076a6      0x10d c:/code/devkitPro/libnds/lib\libnds9.a(sprite_alloc.o)
                                0xcd3 (size before relaxing)
 .debug_str     0x000077b3      0x184 c:/code/devkitPro/libnds/lib\libnds9.a(system.o)
                                0xbd5 (size before relaxing)

.debug_loc      0x00000000    0x19433
 *(.debug_loc)
 .debug_loc     0x00000000       0xf5 main.o
 .debug_loc     0x000000f5      0xc8c d:/Work/NDS/projects/NFlib/nflib/examples/3dsprites/animation/nflib/lib\libnflib.a(nf_2d.o)
 .debug_loc     0x00000d81      0x31e d:/Work/NDS/projects/NFlib/nflib/examples/3dsprites/animation/nflib/lib\libnflib.a(nf_3d.o)
 .debug_loc     0x0000109f      0x37f d:/Work/NDS/projects/NFlib/nflib/examples/3dsprites/animation/nflib/lib\libnflib.a(nf_basic.o)
 .debug_loc     0x0000141e     0x1281 d:/Work/NDS/projects/NFlib/nflib/examples/3dsprites/animation/nflib/lib\libnflib.a(nf_sprite256.o)
 .debug_loc     0x0000269f     0x162c d:/Work/NDS/projects/NFlib/nflib/examples/3dsprites/animation/nflib/lib\libnflib.a(nf_sprite3d.o)
 .debug_loc     0x00003ccb     0x27ed d:/Work/NDS/projects/NFlib/nflib/examples/3dsprites/animation/nflib/lib\libnflib.a(nf_tiledbg.o)
 .debug_loc     0x000064b8     0x1310 c:/code/devkitPro/libnds/lib\libfilesystem.a(nitrofs.o)
 .debug_loc     0x000077c8      0x4d0 c:/code/devkitPro/libnds/lib\libfat.a(libfat.o)
 .debug_loc     0x00007c98      0xe2b c:/code/devkitPro/libnds/lib\libfat.a(partition.o)
 .debug_loc     0x00008ac3      0xde2 c:/code/devkitPro/libnds/lib\libfat.a(fatdir.o)
 .debug_loc     0x000098a5     0x1162 c:/code/devkitPro/libnds/lib\libfat.a(cache.o)
 .debug_loc     0x0000aa07     0x339a c:/code/devkitPro/libnds/lib\libfat.a(fatfile.o)
 .debug_loc     0x0000dda1      0xca4 c:/code/devkitPro/libnds/lib\libfat.a(file_allocation_table.o)
 .debug_loc     0x0000ea45       0x42 c:/code/devkitPro/libnds/lib\libfat.a(filetime.o)
 .debug_loc     0x0000ea87     0x2b8f c:/code/devkitPro/libnds/lib\libfat.a(directory.o)
 .debug_loc     0x00011616     0x108e c:/code/devkitPro/libnds/lib\libnds9.a(console.o)
 .debug_loc     0x000126a4      0x312 c:/code/devkitPro/libnds/lib\libnds9.a(video.o)
 .debug_loc     0x000129b6      0x413 c:/code/devkitPro/libnds/lib\libnds9.a(background.o)
 .debug_loc     0x00012dc9      0x7ef c:/code/devkitPro/libnds/lib\libnds9.a(trig.o)
 .debug_loc     0x000135b8     0x2cd2 c:/code/devkitPro/libnds/lib\libnds9.a(videoGL.o)
 .debug_loc     0x0001628a      0x844 c:/code/devkitPro/libnds/lib\libnds9.a(sprite.o)
 .debug_loc     0x00016ace      0x1c7 c:/code/devkitPro/libnds/lib\libnds9.a(sd.twl.o)
 .debug_loc     0x00016c95      0x31b c:/code/devkitPro/libnds/lib\libnds9.a(dldi.o)
 .debug_loc     0x00016fb0       0xd8 c:/code/devkitPro/libnds/lib\libnds9.a(initSystem.o)
 .debug_loc     0x00017088       0x21 c:/code/devkitPro/libnds/lib\libnds9.a(timeSupport.o)
 .debug_loc     0x000170a9      0x1aa c:/code/devkitPro/libnds/lib\libnds9.a(interrupts.o)
 .debug_loc     0x00017253       0x58 c:/code/devkitPro/libnds/lib\libnds9.a(libnds_exit.arm.o)
 .debug_loc     0x000172ab      0x32f c:/code/devkitPro/libnds/lib\libnds9.a(card.o)
 .debug_loc     0x000175da     0x1310 c:/code/devkitPro/libnds/lib\libnds9.a(fifosystem.o)
 .debug_loc     0x000188ea      0x1cc c:/code/devkitPro/libnds/lib\libnds9.a(dynamicArray.o)
 .debug_loc     0x00018ab6      0x784 c:/code/devkitPro/libnds/lib\libnds9.a(sprite_alloc.o)
 .debug_loc     0x0001923a      0x1f9 c:/code/devkitPro/libnds/lib\libnds9.a(system.o)

.debug_macinfo
 *(.debug_macinfo)

.debug_weaknames
 *(.debug_weaknames)

.debug_funcnames
 *(.debug_funcnames)

.debug_typenames
 *(.debug_typenames)

.debug_varnames
 *(.debug_varnames)

.stack          0x00080000        0x0
                0x00080000                _stack = .
 *(.stack)
LOAD c:/code/devkitpro/devkitarm/bin/../lib/gcc/arm-none-eabi/6.3.0/../../../../arm-none-eabi/lib/thumb/ds_arm9_crt0.o
LOAD c:/code/devkitpro/devkitarm/bin/../lib/gcc/arm-none-eabi/6.3.0/thumb/crti.o
LOAD c:/code/devkitpro/devkitarm/bin/../lib/gcc/arm-none-eabi/6.3.0/thumb/crtbegin.o
LOAD main.o
LOAD d:/Work/NDS/projects/NFlib/nflib/examples/3dsprites/animation/nflib/lib\libnflib.a
LOAD c:/code/devkitPro/libnds/lib\libfilesystem.a
LOAD c:/code/devkitPro/libnds/lib\libfat.a
LOAD c:/code/devkitPro/libnds/lib\libnds9.a
START GROUP
LOAD c:/code/devkitpro/devkitarm/bin/../lib/gcc/arm-none-eabi/6.3.0/thumb\libgcc.a
LOAD c:/code/devkitpro/devkitarm/bin/../lib/gcc/arm-none-eabi/6.3.0/../../../../arm-none-eabi/lib/thumb\libg.a
LOAD c:/code/devkitpro/devkitarm/bin/../lib/gcc/arm-none-eabi/6.3.0/../../../../arm-none-eabi/lib/thumb\libc.a
LOAD c:/code/devkitpro/devkitarm/bin/../lib/gcc/arm-none-eabi/6.3.0/../../../../arm-none-eabi/lib/thumb\libsysbase.a
END GROUP
LOAD c:/code/devkitpro/devkitarm/bin/../lib/gcc/arm-none-eabi/6.3.0/thumb/crtend.o
LOAD c:/code/devkitpro/devkitarm/bin/../lib/gcc/arm-none-eabi/6.3.0/thumb/crtn.o
OUTPUT(d:/Work/NDS/projects/NFlib/nflib/examples/3dsprites/animation/animation.elf elf32-littlearm)

.debug_ranges   0x00000000     0x2b00
 .debug_ranges  0x00000000       0x10 main.o
 .debug_ranges  0x00000010       0x20 d:/Work/NDS/projects/NFlib/nflib/examples/3dsprites/animation/nflib/lib\libnflib.a(nf_2d.o)
 .debug_ranges  0x00000030       0xc0 d:/Work/NDS/projects/NFlib/nflib/examples/3dsprites/animation/nflib/lib\libnflib.a(nf_3d.o)
 .debug_ranges  0x000000f0       0x20 d:/Work/NDS/projects/NFlib/nflib/examples/3dsprites/animation/nflib/lib\libnflib.a(nf_basic.o)
 .debug_ranges  0x00000110      0x128 d:/Work/NDS/projects/NFlib/nflib/examples/3dsprites/animation/nflib/lib\libnflib.a(nf_sprite256.o)
 .debug_ranges  0x00000238      0x2a8 d:/Work/NDS/projects/NFlib/nflib/examples/3dsprites/animation/nflib/lib\libnflib.a(nf_sprite3d.o)
 .debug_ranges  0x000004e0      0x1a8 d:/Work/NDS/projects/NFlib/nflib/examples/3dsprites/animation/nflib/lib\libnflib.a(nf_tiledbg.o)
 .debug_ranges  0x00000688      0x1b0 c:/code/devkitPro/libnds/lib\libfilesystem.a(nitrofs.o)
 .debug_ranges  0x00000838       0x98 c:/code/devkitPro/libnds/lib\libfat.a(libfat.o)
 .debug_ranges  0x000008d0      0x298 c:/code/devkitPro/libnds/lib\libfat.a(partition.o)
 .debug_ranges  0x00000b68       0x10 c:/code/devkitPro/libnds/lib\libfat.a(lock.o)
 .debug_ranges  0x00000b78      0x140 c:/code/devkitPro/libnds/lib\libfat.a(fatdir.o)
 .debug_ranges  0x00000cb8       0xb0 c:/code/devkitPro/libnds/lib\libfat.a(cache.o)
 .debug_ranges  0x00000d68      0x418 c:/code/devkitPro/libnds/lib\libfat.a(fatfile.o)
 .debug_ranges  0x00001180       0x10 c:/code/devkitPro/libnds/lib\libfat.a(disc.o)
 .debug_ranges  0x00001190       0xd8 c:/code/devkitPro/libnds/lib\libfat.a(file_allocation_table.o)
 .debug_ranges  0x00001268       0x20 c:/code/devkitPro/libnds/lib\libfat.a(filetime.o)
 .debug_ranges  0x00001288      0x2f8 c:/code/devkitPro/libnds/lib\libfat.a(directory.o)
 .debug_ranges  0x00001580      0x240 c:/code/devkitPro/libnds/lib\libnds9.a(console.o)
 .debug_ranges  0x000017c0       0x70 c:/code/devkitPro/libnds/lib\libnds9.a(video.o)
 .debug_ranges  0x00001830       0xd8 c:/code/devkitPro/libnds/lib\libnds9.a(background.o)
 .debug_ranges  0x00001908       0xc8 c:/code/devkitPro/libnds/lib\libnds9.a(trig.o)
 .debug_ranges  0x000019d0      0x7d8 c:/code/devkitPro/libnds/lib\libnds9.a(videoGL.o)
 .debug_ranges  0x000021a8       0xa8 c:/code/devkitPro/libnds/lib\libnds9.a(sprite.o)
 .debug_ranges  0x00002250       0x30 c:/code/devkitPro/libnds/lib\libnds9.a(sd.twl.o)
 .debug_ranges  0x00002280       0x48 c:/code/devkitPro/libnds/lib\libnds9.a(dldi.o)
 .debug_ranges  0x000022c8       0x10 c:/code/devkitPro/libnds/lib\libnds9.a(initSystem.o)
 .debug_ranges  0x000022d8       0x10 c:/code/devkitPro/libnds/lib\libnds9.a(timeSupport.o)
 .debug_ranges  0x000022e8       0xe8 c:/code/devkitPro/libnds/lib\libnds9.a(interrupts.o)
 .debug_ranges  0x000023d0       0x18 c:/code/devkitPro/libnds/lib\libnds9.a(libnds_exit.arm.o)
 .debug_ranges  0x000023e8       0x78 c:/code/devkitPro/libnds/lib\libnds9.a(card.o)
 .debug_ranges  0x00002460      0x460 c:/code/devkitPro/libnds/lib\libnds9.a(fifosystem.o)
 .debug_ranges  0x000028c0       0x30 c:/code/devkitPro/libnds/lib\libnds9.a(dcache.o)
 .debug_ranges  0x000028f0       0x28 c:/code/devkitPro/libnds/lib\libnds9.a(mpu_setup.o)
 .debug_ranges  0x00002918       0x20 c:/code/devkitPro/libnds/lib\libnds9.a(IntrWait.o)
 .debug_ranges  0x00002938       0xc0 c:/code/devkitPro/libnds/lib\libnds9.a(biosCalls.o)
 .debug_ranges  0x000029f8       0x28 c:/code/devkitPro/libnds/lib\libnds9.a(dynamicArray.o)
 .debug_ranges  0x00002a20       0x98 c:/code/devkitPro/libnds/lib\libnds9.a(sprite_alloc.o)
 .debug_ranges  0x00002ab8       0x48 c:/code/devkitPro/libnds/lib\libnds9.a(system.o)
